ARM GAS  C:\Users\Aaron\AppData\Local\Temp\cc8VdFcK.s 			page 1


   1              		.cpu cortex-m7
   2              		.arch armv7e-m
   3              		.fpu fpv5-d16
   4              		.eabi_attribute 28, 1
   5              		.eabi_attribute 20, 1
   6              		.eabi_attribute 21, 1
   7              		.eabi_attribute 23, 3
   8              		.eabi_attribute 24, 1
   9              		.eabi_attribute 25, 1
  10              		.eabi_attribute 26, 1
  11              		.eabi_attribute 30, 1
  12              		.eabi_attribute 34, 1
  13              		.eabi_attribute 18, 4
  14              		.file	"main.c"
  15              		.text
  16              	.Ltext0:
  17              		.cfi_sections	.debug_frame
  18              		.file 1 "Core/Src/main.c"
  19              		.section	.text.MX_GPIO_Init,"ax",%progbits
  20              		.align	1
  21              		.syntax unified
  22              		.thumb
  23              		.thumb_func
  25              	MX_GPIO_Init:
  26              	.LFB153:
   1:Core/Src/main.c **** /* USER CODE BEGIN Header */
   2:Core/Src/main.c **** /**
   3:Core/Src/main.c ****   ******************************************************************************
   4:Core/Src/main.c ****   * @file           : main.c
   5:Core/Src/main.c ****   * @brief          : Main program body
   6:Core/Src/main.c ****   ******************************************************************************
   7:Core/Src/main.c ****   * @attention
   8:Core/Src/main.c ****   *
   9:Core/Src/main.c ****   * Copyright (c) 2024 STMicroelectronics.
  10:Core/Src/main.c ****   * All rights reserved.
  11:Core/Src/main.c ****   *
  12:Core/Src/main.c ****   * This software is licensed under terms that can be found in the LICENSE file
  13:Core/Src/main.c ****   * in the root directory of this software component.
  14:Core/Src/main.c ****   * If no LICENSE file comes with this software, it is provided AS-IS.
  15:Core/Src/main.c ****   *
  16:Core/Src/main.c ****   ******************************************************************************
  17:Core/Src/main.c ****   */
  18:Core/Src/main.c **** /* USER CODE END Header */
  19:Core/Src/main.c **** /* Includes ------------------------------------------------------------------*/
  20:Core/Src/main.c **** #include "main.h"
  21:Core/Src/main.c **** #include "string.h"
  22:Core/Src/main.c **** #include "cmsis_os.h"
  23:Core/Src/main.c **** 
  24:Core/Src/main.c **** /* Private includes ----------------------------------------------------------*/
  25:Core/Src/main.c **** /* USER CODE BEGIN Includes */
  26:Core/Src/main.c **** 
  27:Core/Src/main.c **** /* USER CODE END Includes */
  28:Core/Src/main.c **** 
  29:Core/Src/main.c **** /* Private typedef -----------------------------------------------------------*/
  30:Core/Src/main.c **** /* USER CODE BEGIN PTD */
  31:Core/Src/main.c **** 
  32:Core/Src/main.c **** /* USER CODE END PTD */
ARM GAS  C:\Users\Aaron\AppData\Local\Temp\cc8VdFcK.s 			page 2


  33:Core/Src/main.c **** 
  34:Core/Src/main.c **** /* Private define ------------------------------------------------------------*/
  35:Core/Src/main.c **** /* USER CODE BEGIN PD */
  36:Core/Src/main.c **** 
  37:Core/Src/main.c **** /* USER CODE END PD */
  38:Core/Src/main.c **** 
  39:Core/Src/main.c **** /* Private macro -------------------------------------------------------------*/
  40:Core/Src/main.c **** /* USER CODE BEGIN PM */
  41:Core/Src/main.c **** 
  42:Core/Src/main.c **** /* USER CODE END PM */
  43:Core/Src/main.c **** 
  44:Core/Src/main.c **** /* Private variables ---------------------------------------------------------*/
  45:Core/Src/main.c **** #if defined ( __ICCARM__ ) /*!< IAR Compiler */
  46:Core/Src/main.c **** #pragma location=0x30000000
  47:Core/Src/main.c **** ETH_DMADescTypeDef  DMARxDscrTab[ETH_RX_DESC_CNT]; /* Ethernet Rx DMA Descriptors */
  48:Core/Src/main.c **** #pragma location=0x30000200
  49:Core/Src/main.c **** ETH_DMADescTypeDef  DMATxDscrTab[ETH_TX_DESC_CNT]; /* Ethernet Tx DMA Descriptors */
  50:Core/Src/main.c **** 
  51:Core/Src/main.c **** #elif defined ( __CC_ARM )  /* MDK ARM Compiler */
  52:Core/Src/main.c **** 
  53:Core/Src/main.c **** __attribute__((at(0x30000000))) ETH_DMADescTypeDef  DMARxDscrTab[ETH_RX_DESC_CNT]; /* Ethernet Rx D
  54:Core/Src/main.c **** __attribute__((at(0x30000200))) ETH_DMADescTypeDef  DMATxDscrTab[ETH_TX_DESC_CNT]; /* Ethernet Tx D
  55:Core/Src/main.c **** 
  56:Core/Src/main.c **** #elif defined ( __GNUC__ ) /* GNU Compiler */
  57:Core/Src/main.c **** 
  58:Core/Src/main.c **** ETH_DMADescTypeDef DMARxDscrTab[ETH_RX_DESC_CNT] __attribute__((section(".RxDecripSection"))); /* E
  59:Core/Src/main.c **** ETH_DMADescTypeDef DMATxDscrTab[ETH_TX_DESC_CNT] __attribute__((section(".TxDecripSection")));   /*
  60:Core/Src/main.c **** #endif
  61:Core/Src/main.c **** 
  62:Core/Src/main.c **** ETH_TxPacketConfig TxConfig;
  63:Core/Src/main.c **** 
  64:Core/Src/main.c **** ETH_HandleTypeDef heth;
  65:Core/Src/main.c **** 
  66:Core/Src/main.c **** UART_HandleTypeDef huart3;
  67:Core/Src/main.c **** 
  68:Core/Src/main.c **** /* Definitions for blinkGreen */
  69:Core/Src/main.c **** osThreadId_t blinkGreenHandle;
  70:Core/Src/main.c **** const osThreadAttr_t blinkGreen_attributes = {
  71:Core/Src/main.c ****   .name = "blinkGreen",
  72:Core/Src/main.c ****   .stack_size = 128 * 4,
  73:Core/Src/main.c ****   .priority = (osPriority_t) osPriorityNormal,
  74:Core/Src/main.c **** };
  75:Core/Src/main.c **** /* Definitions for blinkRed */
  76:Core/Src/main.c **** osThreadId_t blinkRedHandle;
  77:Core/Src/main.c **** const osThreadAttr_t blinkRed_attributes = {
  78:Core/Src/main.c ****   .name = "blinkRed",
  79:Core/Src/main.c ****   .stack_size = 128 * 4,
  80:Core/Src/main.c ****   .priority = (osPriority_t) osPriorityLow,
  81:Core/Src/main.c **** };
  82:Core/Src/main.c **** /* USER CODE BEGIN PV */
  83:Core/Src/main.c **** 
  84:Core/Src/main.c **** /* USER CODE END PV */
  85:Core/Src/main.c **** 
  86:Core/Src/main.c **** /* Private function prototypes -----------------------------------------------*/
  87:Core/Src/main.c **** void SystemClock_Config(void);
  88:Core/Src/main.c **** static void MX_GPIO_Init(void);
  89:Core/Src/main.c **** static void MX_ETH_Init(void);
ARM GAS  C:\Users\Aaron\AppData\Local\Temp\cc8VdFcK.s 			page 3


  90:Core/Src/main.c **** static void MX_USART3_UART_Init(void);
  91:Core/Src/main.c **** static void MX_USB_OTG_HS_USB_Init(void);
  92:Core/Src/main.c **** void StartBlinkGreen(void *argument);
  93:Core/Src/main.c **** void StartBlinkRed(void *argument);
  94:Core/Src/main.c **** 
  95:Core/Src/main.c **** /* USER CODE BEGIN PFP */
  96:Core/Src/main.c **** 
  97:Core/Src/main.c **** /* USER CODE END PFP */
  98:Core/Src/main.c **** 
  99:Core/Src/main.c **** /* Private user code ---------------------------------------------------------*/
 100:Core/Src/main.c **** /* USER CODE BEGIN 0 */
 101:Core/Src/main.c **** 
 102:Core/Src/main.c **** /* USER CODE END 0 */
 103:Core/Src/main.c **** 
 104:Core/Src/main.c **** /**
 105:Core/Src/main.c ****   * @brief  The application entry point.
 106:Core/Src/main.c ****   * @retval int
 107:Core/Src/main.c ****   */
 108:Core/Src/main.c **** int main(void)
 109:Core/Src/main.c **** {
 110:Core/Src/main.c **** 
 111:Core/Src/main.c ****   /* USER CODE BEGIN 1 */
 112:Core/Src/main.c **** 
 113:Core/Src/main.c ****   /* USER CODE END 1 */
 114:Core/Src/main.c **** 
 115:Core/Src/main.c ****   /* MCU Configuration--------------------------------------------------------*/
 116:Core/Src/main.c **** 
 117:Core/Src/main.c ****   /* Reset of all peripherals, Initializes the Flash interface and the Systick. */
 118:Core/Src/main.c ****   HAL_Init();
 119:Core/Src/main.c **** 
 120:Core/Src/main.c ****   /* USER CODE BEGIN Init */
 121:Core/Src/main.c **** 
 122:Core/Src/main.c ****   /* USER CODE END Init */
 123:Core/Src/main.c **** 
 124:Core/Src/main.c ****   /* Configure the system clock */
 125:Core/Src/main.c ****   SystemClock_Config();
 126:Core/Src/main.c **** 
 127:Core/Src/main.c ****   /* USER CODE BEGIN SysInit */
 128:Core/Src/main.c **** 
 129:Core/Src/main.c ****   /* USER CODE END SysInit */
 130:Core/Src/main.c **** 
 131:Core/Src/main.c ****   /* Initialize all configured peripherals */
 132:Core/Src/main.c ****   MX_GPIO_Init();
 133:Core/Src/main.c ****   MX_ETH_Init();
 134:Core/Src/main.c ****   MX_USART3_UART_Init();
 135:Core/Src/main.c ****   MX_USB_OTG_HS_USB_Init();
 136:Core/Src/main.c ****   /* USER CODE BEGIN 2 */
 137:Core/Src/main.c **** 
 138:Core/Src/main.c ****   /* USER CODE END 2 */
 139:Core/Src/main.c **** 
 140:Core/Src/main.c ****   /* Init scheduler */
 141:Core/Src/main.c ****   osKernelInitialize();
 142:Core/Src/main.c **** 
 143:Core/Src/main.c ****   /* USER CODE BEGIN RTOS_MUTEX */
 144:Core/Src/main.c ****   /* add mutexes, ... */
 145:Core/Src/main.c ****   /* USER CODE END RTOS_MUTEX */
 146:Core/Src/main.c **** 
ARM GAS  C:\Users\Aaron\AppData\Local\Temp\cc8VdFcK.s 			page 4


 147:Core/Src/main.c ****   /* USER CODE BEGIN RTOS_SEMAPHORES */
 148:Core/Src/main.c ****   /* add semaphores, ... */
 149:Core/Src/main.c ****   /* USER CODE END RTOS_SEMAPHORES */
 150:Core/Src/main.c **** 
 151:Core/Src/main.c ****   /* USER CODE BEGIN RTOS_TIMERS */
 152:Core/Src/main.c ****   /* start timers, add new ones, ... */
 153:Core/Src/main.c ****   /* USER CODE END RTOS_TIMERS */
 154:Core/Src/main.c **** 
 155:Core/Src/main.c ****   /* USER CODE BEGIN RTOS_QUEUES */
 156:Core/Src/main.c ****   /* add queues, ... */
 157:Core/Src/main.c ****   /* USER CODE END RTOS_QUEUES */
 158:Core/Src/main.c **** 
 159:Core/Src/main.c ****   /* Create the thread(s) */
 160:Core/Src/main.c ****   /* creation of blinkGreen */
 161:Core/Src/main.c ****   blinkGreenHandle = osThreadNew(StartBlinkGreen, NULL, &blinkGreen_attributes);
 162:Core/Src/main.c **** 
 163:Core/Src/main.c ****   /* creation of blinkRed */
 164:Core/Src/main.c ****   blinkRedHandle = osThreadNew(StartBlinkRed, NULL, &blinkRed_attributes);
 165:Core/Src/main.c **** 
 166:Core/Src/main.c ****   /* USER CODE BEGIN RTOS_THREADS */
 167:Core/Src/main.c ****   /* add threads, ... */
 168:Core/Src/main.c ****   /* USER CODE END RTOS_THREADS */
 169:Core/Src/main.c **** 
 170:Core/Src/main.c ****   /* USER CODE BEGIN RTOS_EVENTS */
 171:Core/Src/main.c ****   /* add events, ... */
 172:Core/Src/main.c ****   /* USER CODE END RTOS_EVENTS */
 173:Core/Src/main.c **** 
 174:Core/Src/main.c ****   /* Start scheduler */
 175:Core/Src/main.c ****   osKernelStart();
 176:Core/Src/main.c **** 
 177:Core/Src/main.c ****   /* We should never get here as control is now taken by the scheduler */
 178:Core/Src/main.c **** 
 179:Core/Src/main.c ****   /* Infinite loop */
 180:Core/Src/main.c ****   /* USER CODE BEGIN WHILE */
 181:Core/Src/main.c ****   while (1)
 182:Core/Src/main.c ****   {
 183:Core/Src/main.c ****     /* USER CODE END WHILE */
 184:Core/Src/main.c **** 
 185:Core/Src/main.c ****     /* USER CODE BEGIN 3 */
 186:Core/Src/main.c ****   }
 187:Core/Src/main.c ****   /* USER CODE END 3 */
 188:Core/Src/main.c **** }
 189:Core/Src/main.c **** 
 190:Core/Src/main.c **** /**
 191:Core/Src/main.c ****   * @brief System Clock Configuration
 192:Core/Src/main.c ****   * @retval None
 193:Core/Src/main.c ****   */
 194:Core/Src/main.c **** void SystemClock_Config(void)
 195:Core/Src/main.c **** {
 196:Core/Src/main.c ****   RCC_OscInitTypeDef RCC_OscInitStruct = {0};
 197:Core/Src/main.c ****   RCC_ClkInitTypeDef RCC_ClkInitStruct = {0};
 198:Core/Src/main.c **** 
 199:Core/Src/main.c ****   /** Supply configuration update enable
 200:Core/Src/main.c ****   */
 201:Core/Src/main.c ****   HAL_PWREx_ConfigSupply(PWR_LDO_SUPPLY);
 202:Core/Src/main.c **** 
 203:Core/Src/main.c ****   /** Configure the main internal regulator output voltage
ARM GAS  C:\Users\Aaron\AppData\Local\Temp\cc8VdFcK.s 			page 5


 204:Core/Src/main.c ****   */
 205:Core/Src/main.c ****   __HAL_PWR_VOLTAGESCALING_CONFIG(PWR_REGULATOR_VOLTAGE_SCALE0);
 206:Core/Src/main.c **** 
 207:Core/Src/main.c ****   while(!__HAL_PWR_GET_FLAG(PWR_FLAG_VOSRDY)) {}
 208:Core/Src/main.c **** 
 209:Core/Src/main.c ****   /** Initializes the RCC Oscillators according to the specified parameters
 210:Core/Src/main.c ****   * in the RCC_OscInitTypeDef structure.
 211:Core/Src/main.c ****   */
 212:Core/Src/main.c ****   RCC_OscInitStruct.OscillatorType = RCC_OSCILLATORTYPE_HSI48|RCC_OSCILLATORTYPE_HSE;
 213:Core/Src/main.c ****   RCC_OscInitStruct.HSEState = RCC_HSE_BYPASS;
 214:Core/Src/main.c ****   RCC_OscInitStruct.HSI48State = RCC_HSI48_ON;
 215:Core/Src/main.c ****   RCC_OscInitStruct.PLL.PLLState = RCC_PLL_ON;
 216:Core/Src/main.c ****   RCC_OscInitStruct.PLL.PLLSource = RCC_PLLSOURCE_HSE;
 217:Core/Src/main.c ****   RCC_OscInitStruct.PLL.PLLM = 4;
 218:Core/Src/main.c ****   RCC_OscInitStruct.PLL.PLLN = 275;
 219:Core/Src/main.c ****   RCC_OscInitStruct.PLL.PLLP = 1;
 220:Core/Src/main.c ****   RCC_OscInitStruct.PLL.PLLQ = 4;
 221:Core/Src/main.c ****   RCC_OscInitStruct.PLL.PLLR = 2;
 222:Core/Src/main.c ****   RCC_OscInitStruct.PLL.PLLRGE = RCC_PLL1VCIRANGE_1;
 223:Core/Src/main.c ****   RCC_OscInitStruct.PLL.PLLVCOSEL = RCC_PLL1VCOWIDE;
 224:Core/Src/main.c ****   RCC_OscInitStruct.PLL.PLLFRACN = 0;
 225:Core/Src/main.c ****   if (HAL_RCC_OscConfig(&RCC_OscInitStruct) != HAL_OK)
 226:Core/Src/main.c ****   {
 227:Core/Src/main.c ****     Error_Handler();
 228:Core/Src/main.c ****   }
 229:Core/Src/main.c **** 
 230:Core/Src/main.c ****   /** Initializes the CPU, AHB and APB buses clocks
 231:Core/Src/main.c ****   */
 232:Core/Src/main.c ****   RCC_ClkInitStruct.ClockType = RCC_CLOCKTYPE_HCLK|RCC_CLOCKTYPE_SYSCLK
 233:Core/Src/main.c ****                               |RCC_CLOCKTYPE_PCLK1|RCC_CLOCKTYPE_PCLK2
 234:Core/Src/main.c ****                               |RCC_CLOCKTYPE_D3PCLK1|RCC_CLOCKTYPE_D1PCLK1;
 235:Core/Src/main.c ****   RCC_ClkInitStruct.SYSCLKSource = RCC_SYSCLKSOURCE_PLLCLK;
 236:Core/Src/main.c ****   RCC_ClkInitStruct.SYSCLKDivider = RCC_SYSCLK_DIV1;
 237:Core/Src/main.c ****   RCC_ClkInitStruct.AHBCLKDivider = RCC_HCLK_DIV2;
 238:Core/Src/main.c ****   RCC_ClkInitStruct.APB3CLKDivider = RCC_APB3_DIV2;
 239:Core/Src/main.c ****   RCC_ClkInitStruct.APB1CLKDivider = RCC_APB1_DIV2;
 240:Core/Src/main.c ****   RCC_ClkInitStruct.APB2CLKDivider = RCC_APB2_DIV2;
 241:Core/Src/main.c ****   RCC_ClkInitStruct.APB4CLKDivider = RCC_APB4_DIV2;
 242:Core/Src/main.c **** 
 243:Core/Src/main.c ****   if (HAL_RCC_ClockConfig(&RCC_ClkInitStruct, FLASH_LATENCY_3) != HAL_OK)
 244:Core/Src/main.c ****   {
 245:Core/Src/main.c ****     Error_Handler();
 246:Core/Src/main.c ****   }
 247:Core/Src/main.c **** }
 248:Core/Src/main.c **** 
 249:Core/Src/main.c **** /**
 250:Core/Src/main.c ****   * @brief ETH Initialization Function
 251:Core/Src/main.c ****   * @param None
 252:Core/Src/main.c ****   * @retval None
 253:Core/Src/main.c ****   */
 254:Core/Src/main.c **** static void MX_ETH_Init(void)
 255:Core/Src/main.c **** {
 256:Core/Src/main.c **** 
 257:Core/Src/main.c ****   /* USER CODE BEGIN ETH_Init 0 */
 258:Core/Src/main.c **** 
 259:Core/Src/main.c ****   /* USER CODE END ETH_Init 0 */
 260:Core/Src/main.c **** 
ARM GAS  C:\Users\Aaron\AppData\Local\Temp\cc8VdFcK.s 			page 6


 261:Core/Src/main.c ****    static uint8_t MACAddr[6];
 262:Core/Src/main.c **** 
 263:Core/Src/main.c ****   /* USER CODE BEGIN ETH_Init 1 */
 264:Core/Src/main.c **** 
 265:Core/Src/main.c ****   /* USER CODE END ETH_Init 1 */
 266:Core/Src/main.c ****   heth.Instance = ETH;
 267:Core/Src/main.c ****   MACAddr[0] = 0x00;
 268:Core/Src/main.c ****   MACAddr[1] = 0x80;
 269:Core/Src/main.c ****   MACAddr[2] = 0xE1;
 270:Core/Src/main.c ****   MACAddr[3] = 0x00;
 271:Core/Src/main.c ****   MACAddr[4] = 0x00;
 272:Core/Src/main.c ****   MACAddr[5] = 0x00;
 273:Core/Src/main.c ****   heth.Init.MACAddr = &MACAddr[0];
 274:Core/Src/main.c ****   heth.Init.MediaInterface = HAL_ETH_RMII_MODE;
 275:Core/Src/main.c ****   heth.Init.TxDesc = DMATxDscrTab;
 276:Core/Src/main.c ****   heth.Init.RxDesc = DMARxDscrTab;
 277:Core/Src/main.c ****   heth.Init.RxBuffLen = 1524;
 278:Core/Src/main.c **** 
 279:Core/Src/main.c ****   /* USER CODE BEGIN MACADDRESS */
 280:Core/Src/main.c **** 
 281:Core/Src/main.c ****   /* USER CODE END MACADDRESS */
 282:Core/Src/main.c **** 
 283:Core/Src/main.c ****   if (HAL_ETH_Init(&heth) != HAL_OK)
 284:Core/Src/main.c ****   {
 285:Core/Src/main.c ****     Error_Handler();
 286:Core/Src/main.c ****   }
 287:Core/Src/main.c **** 
 288:Core/Src/main.c ****   memset(&TxConfig, 0 , sizeof(ETH_TxPacketConfig));
 289:Core/Src/main.c ****   TxConfig.Attributes = ETH_TX_PACKETS_FEATURES_CSUM | ETH_TX_PACKETS_FEATURES_CRCPAD;
 290:Core/Src/main.c ****   TxConfig.ChecksumCtrl = ETH_CHECKSUM_IPHDR_PAYLOAD_INSERT_PHDR_CALC;
 291:Core/Src/main.c ****   TxConfig.CRCPadCtrl = ETH_CRC_PAD_INSERT;
 292:Core/Src/main.c ****   /* USER CODE BEGIN ETH_Init 2 */
 293:Core/Src/main.c **** 
 294:Core/Src/main.c ****   /* USER CODE END ETH_Init 2 */
 295:Core/Src/main.c **** 
 296:Core/Src/main.c **** }
 297:Core/Src/main.c **** 
 298:Core/Src/main.c **** /**
 299:Core/Src/main.c ****   * @brief USART3 Initialization Function
 300:Core/Src/main.c ****   * @param None
 301:Core/Src/main.c ****   * @retval None
 302:Core/Src/main.c ****   */
 303:Core/Src/main.c **** static void MX_USART3_UART_Init(void)
 304:Core/Src/main.c **** {
 305:Core/Src/main.c **** 
 306:Core/Src/main.c ****   /* USER CODE BEGIN USART3_Init 0 */
 307:Core/Src/main.c **** 
 308:Core/Src/main.c ****   /* USER CODE END USART3_Init 0 */
 309:Core/Src/main.c **** 
 310:Core/Src/main.c ****   /* USER CODE BEGIN USART3_Init 1 */
 311:Core/Src/main.c **** 
 312:Core/Src/main.c ****   /* USER CODE END USART3_Init 1 */
 313:Core/Src/main.c ****   huart3.Instance = USART3;
 314:Core/Src/main.c ****   huart3.Init.BaudRate = 115200;
 315:Core/Src/main.c ****   huart3.Init.WordLength = UART_WORDLENGTH_8B;
 316:Core/Src/main.c ****   huart3.Init.StopBits = UART_STOPBITS_1;
 317:Core/Src/main.c ****   huart3.Init.Parity = UART_PARITY_NONE;
ARM GAS  C:\Users\Aaron\AppData\Local\Temp\cc8VdFcK.s 			page 7


 318:Core/Src/main.c ****   huart3.Init.Mode = UART_MODE_TX_RX;
 319:Core/Src/main.c ****   huart3.Init.HwFlowCtl = UART_HWCONTROL_NONE;
 320:Core/Src/main.c ****   huart3.Init.OverSampling = UART_OVERSAMPLING_16;
 321:Core/Src/main.c ****   huart3.Init.OneBitSampling = UART_ONE_BIT_SAMPLE_DISABLE;
 322:Core/Src/main.c ****   huart3.Init.ClockPrescaler = UART_PRESCALER_DIV1;
 323:Core/Src/main.c ****   huart3.AdvancedInit.AdvFeatureInit = UART_ADVFEATURE_NO_INIT;
 324:Core/Src/main.c ****   if (HAL_UART_Init(&huart3) != HAL_OK)
 325:Core/Src/main.c ****   {
 326:Core/Src/main.c ****     Error_Handler();
 327:Core/Src/main.c ****   }
 328:Core/Src/main.c ****   if (HAL_UARTEx_SetTxFifoThreshold(&huart3, UART_TXFIFO_THRESHOLD_1_8) != HAL_OK)
 329:Core/Src/main.c ****   {
 330:Core/Src/main.c ****     Error_Handler();
 331:Core/Src/main.c ****   }
 332:Core/Src/main.c ****   if (HAL_UARTEx_SetRxFifoThreshold(&huart3, UART_RXFIFO_THRESHOLD_1_8) != HAL_OK)
 333:Core/Src/main.c ****   {
 334:Core/Src/main.c ****     Error_Handler();
 335:Core/Src/main.c ****   }
 336:Core/Src/main.c ****   if (HAL_UARTEx_DisableFifoMode(&huart3) != HAL_OK)
 337:Core/Src/main.c ****   {
 338:Core/Src/main.c ****     Error_Handler();
 339:Core/Src/main.c ****   }
 340:Core/Src/main.c ****   /* USER CODE BEGIN USART3_Init 2 */
 341:Core/Src/main.c **** 
 342:Core/Src/main.c ****   /* USER CODE END USART3_Init 2 */
 343:Core/Src/main.c **** 
 344:Core/Src/main.c **** }
 345:Core/Src/main.c **** 
 346:Core/Src/main.c **** /**
 347:Core/Src/main.c ****   * @brief USB_OTG_HS Initialization Function
 348:Core/Src/main.c ****   * @param None
 349:Core/Src/main.c ****   * @retval None
 350:Core/Src/main.c ****   */
 351:Core/Src/main.c **** static void MX_USB_OTG_HS_USB_Init(void)
 352:Core/Src/main.c **** {
 353:Core/Src/main.c **** 
 354:Core/Src/main.c ****   /* USER CODE BEGIN USB_OTG_HS_Init 0 */
 355:Core/Src/main.c **** 
 356:Core/Src/main.c ****   /* USER CODE END USB_OTG_HS_Init 0 */
 357:Core/Src/main.c **** 
 358:Core/Src/main.c ****   /* USER CODE BEGIN USB_OTG_HS_Init 1 */
 359:Core/Src/main.c **** 
 360:Core/Src/main.c ****   /* USER CODE END USB_OTG_HS_Init 1 */
 361:Core/Src/main.c ****   /* USER CODE BEGIN USB_OTG_HS_Init 2 */
 362:Core/Src/main.c **** 
 363:Core/Src/main.c ****   /* USER CODE END USB_OTG_HS_Init 2 */
 364:Core/Src/main.c **** 
 365:Core/Src/main.c **** }
 366:Core/Src/main.c **** 
 367:Core/Src/main.c **** /**
 368:Core/Src/main.c ****   * @brief GPIO Initialization Function
 369:Core/Src/main.c ****   * @param None
 370:Core/Src/main.c ****   * @retval None
 371:Core/Src/main.c ****   */
 372:Core/Src/main.c **** static void MX_GPIO_Init(void)
 373:Core/Src/main.c **** {
  27              		.loc 1 373 1 view -0
ARM GAS  C:\Users\Aaron\AppData\Local\Temp\cc8VdFcK.s 			page 8


  28              		.cfi_startproc
  29              		@ args = 0, pretend = 0, frame = 48
  30              		@ frame_needed = 0, uses_anonymous_args = 0
  31 0000 2DE9F041 		push	{r4, r5, r6, r7, r8, lr}
  32              		.cfi_def_cfa_offset 24
  33              		.cfi_offset 4, -24
  34              		.cfi_offset 5, -20
  35              		.cfi_offset 6, -16
  36              		.cfi_offset 7, -12
  37              		.cfi_offset 8, -8
  38              		.cfi_offset 14, -4
  39 0004 8CB0     		sub	sp, sp, #48
  40              		.cfi_def_cfa_offset 72
 374:Core/Src/main.c ****   GPIO_InitTypeDef GPIO_InitStruct = {0};
  41              		.loc 1 374 3 view .LVU1
  42              		.loc 1 374 20 is_stmt 0 view .LVU2
  43 0006 0024     		movs	r4, #0
  44 0008 0794     		str	r4, [sp, #28]
  45 000a 0894     		str	r4, [sp, #32]
  46 000c 0994     		str	r4, [sp, #36]
  47 000e 0A94     		str	r4, [sp, #40]
  48 0010 0B94     		str	r4, [sp, #44]
 375:Core/Src/main.c **** /* USER CODE BEGIN MX_GPIO_Init_1 */
 376:Core/Src/main.c **** /* USER CODE END MX_GPIO_Init_1 */
 377:Core/Src/main.c **** 
 378:Core/Src/main.c ****   /* GPIO Ports Clock Enable */
 379:Core/Src/main.c ****   __HAL_RCC_GPIOC_CLK_ENABLE();
  49              		.loc 1 379 3 is_stmt 1 view .LVU3
  50              	.LBB4:
  51              		.loc 1 379 3 view .LVU4
  52              		.loc 1 379 3 view .LVU5
  53 0012 594B     		ldr	r3, .L3
  54 0014 D3F8E020 		ldr	r2, [r3, #224]
  55 0018 42F00402 		orr	r2, r2, #4
  56 001c C3F8E020 		str	r2, [r3, #224]
  57              		.loc 1 379 3 view .LVU6
  58 0020 D3F8E020 		ldr	r2, [r3, #224]
  59 0024 02F00402 		and	r2, r2, #4
  60 0028 0092     		str	r2, [sp]
  61              		.loc 1 379 3 view .LVU7
  62 002a 009A     		ldr	r2, [sp]
  63              	.LBE4:
  64              		.loc 1 379 3 view .LVU8
 380:Core/Src/main.c ****   __HAL_RCC_GPIOH_CLK_ENABLE();
  65              		.loc 1 380 3 view .LVU9
  66              	.LBB5:
  67              		.loc 1 380 3 view .LVU10
  68              		.loc 1 380 3 view .LVU11
  69 002c D3F8E020 		ldr	r2, [r3, #224]
  70 0030 42F08002 		orr	r2, r2, #128
  71 0034 C3F8E020 		str	r2, [r3, #224]
  72              		.loc 1 380 3 view .LVU12
  73 0038 D3F8E020 		ldr	r2, [r3, #224]
  74 003c 02F08002 		and	r2, r2, #128
  75 0040 0192     		str	r2, [sp, #4]
  76              		.loc 1 380 3 view .LVU13
  77 0042 019A     		ldr	r2, [sp, #4]
ARM GAS  C:\Users\Aaron\AppData\Local\Temp\cc8VdFcK.s 			page 9


  78              	.LBE5:
  79              		.loc 1 380 3 view .LVU14
 381:Core/Src/main.c ****   __HAL_RCC_GPIOA_CLK_ENABLE();
  80              		.loc 1 381 3 view .LVU15
  81              	.LBB6:
  82              		.loc 1 381 3 view .LVU16
  83              		.loc 1 381 3 view .LVU17
  84 0044 D3F8E020 		ldr	r2, [r3, #224]
  85 0048 42F00102 		orr	r2, r2, #1
  86 004c C3F8E020 		str	r2, [r3, #224]
  87              		.loc 1 381 3 view .LVU18
  88 0050 D3F8E020 		ldr	r2, [r3, #224]
  89 0054 02F00102 		and	r2, r2, #1
  90 0058 0292     		str	r2, [sp, #8]
  91              		.loc 1 381 3 view .LVU19
  92 005a 029A     		ldr	r2, [sp, #8]
  93              	.LBE6:
  94              		.loc 1 381 3 view .LVU20
 382:Core/Src/main.c ****   __HAL_RCC_GPIOB_CLK_ENABLE();
  95              		.loc 1 382 3 view .LVU21
  96              	.LBB7:
  97              		.loc 1 382 3 view .LVU22
  98              		.loc 1 382 3 view .LVU23
  99 005c D3F8E020 		ldr	r2, [r3, #224]
 100 0060 42F00202 		orr	r2, r2, #2
 101 0064 C3F8E020 		str	r2, [r3, #224]
 102              		.loc 1 382 3 view .LVU24
 103 0068 D3F8E020 		ldr	r2, [r3, #224]
 104 006c 02F00202 		and	r2, r2, #2
 105 0070 0392     		str	r2, [sp, #12]
 106              		.loc 1 382 3 view .LVU25
 107 0072 039A     		ldr	r2, [sp, #12]
 108              	.LBE7:
 109              		.loc 1 382 3 view .LVU26
 383:Core/Src/main.c ****   __HAL_RCC_GPIOD_CLK_ENABLE();
 110              		.loc 1 383 3 view .LVU27
 111              	.LBB8:
 112              		.loc 1 383 3 view .LVU28
 113              		.loc 1 383 3 view .LVU29
 114 0074 D3F8E020 		ldr	r2, [r3, #224]
 115 0078 42F00802 		orr	r2, r2, #8
 116 007c C3F8E020 		str	r2, [r3, #224]
 117              		.loc 1 383 3 view .LVU30
 118 0080 D3F8E020 		ldr	r2, [r3, #224]
 119 0084 02F00802 		and	r2, r2, #8
 120 0088 0492     		str	r2, [sp, #16]
 121              		.loc 1 383 3 view .LVU31
 122 008a 049A     		ldr	r2, [sp, #16]
 123              	.LBE8:
 124              		.loc 1 383 3 view .LVU32
 384:Core/Src/main.c ****   __HAL_RCC_GPIOG_CLK_ENABLE();
 125              		.loc 1 384 3 view .LVU33
 126              	.LBB9:
 127              		.loc 1 384 3 view .LVU34
 128              		.loc 1 384 3 view .LVU35
 129 008c D3F8E020 		ldr	r2, [r3, #224]
 130 0090 42F04002 		orr	r2, r2, #64
ARM GAS  C:\Users\Aaron\AppData\Local\Temp\cc8VdFcK.s 			page 10


 131 0094 C3F8E020 		str	r2, [r3, #224]
 132              		.loc 1 384 3 view .LVU36
 133 0098 D3F8E020 		ldr	r2, [r3, #224]
 134 009c 02F04002 		and	r2, r2, #64
 135 00a0 0592     		str	r2, [sp, #20]
 136              		.loc 1 384 3 view .LVU37
 137 00a2 059A     		ldr	r2, [sp, #20]
 138              	.LBE9:
 139              		.loc 1 384 3 view .LVU38
 385:Core/Src/main.c ****   __HAL_RCC_GPIOE_CLK_ENABLE();
 140              		.loc 1 385 3 view .LVU39
 141              	.LBB10:
 142              		.loc 1 385 3 view .LVU40
 143              		.loc 1 385 3 view .LVU41
 144 00a4 D3F8E020 		ldr	r2, [r3, #224]
 145 00a8 42F01002 		orr	r2, r2, #16
 146 00ac C3F8E020 		str	r2, [r3, #224]
 147              		.loc 1 385 3 view .LVU42
 148 00b0 D3F8E030 		ldr	r3, [r3, #224]
 149 00b4 03F01003 		and	r3, r3, #16
 150 00b8 0693     		str	r3, [sp, #24]
 151              		.loc 1 385 3 view .LVU43
 152 00ba 069B     		ldr	r3, [sp, #24]
 153              	.LBE10:
 154              		.loc 1 385 3 view .LVU44
 386:Core/Src/main.c **** 
 387:Core/Src/main.c ****   /*Configure GPIO pin Output Level */
 388:Core/Src/main.c ****   HAL_GPIO_WritePin(GPIOB, LED_GREEN_Pin|LED_RED_Pin, GPIO_PIN_RESET);
 155              		.loc 1 388 3 view .LVU45
 156 00bc 2F4F     		ldr	r7, .L3+4
 157 00be 2246     		mov	r2, r4
 158 00c0 44F20101 		movw	r1, #16385
 159 00c4 3846     		mov	r0, r7
 160 00c6 FFF7FEFF 		bl	HAL_GPIO_WritePin
 161              	.LVL0:
 389:Core/Src/main.c **** 
 390:Core/Src/main.c ****   /*Configure GPIO pin Output Level */
 391:Core/Src/main.c ****   HAL_GPIO_WritePin(USB_FS_PWR_EN_GPIO_Port, USB_FS_PWR_EN_Pin, GPIO_PIN_RESET);
 162              		.loc 1 391 3 view .LVU46
 163 00ca DFF8C080 		ldr	r8, .L3+20
 164 00ce 2246     		mov	r2, r4
 165 00d0 4FF48061 		mov	r1, #1024
 166 00d4 4046     		mov	r0, r8
 167 00d6 FFF7FEFF 		bl	HAL_GPIO_WritePin
 168              	.LVL1:
 392:Core/Src/main.c **** 
 393:Core/Src/main.c ****   /*Configure GPIO pin Output Level */
 394:Core/Src/main.c ****   HAL_GPIO_WritePin(LED_YELLOW_GPIO_Port, LED_YELLOW_Pin, GPIO_PIN_RESET);
 169              		.loc 1 394 3 view .LVU47
 170 00da 294E     		ldr	r6, .L3+8
 171 00dc 2246     		mov	r2, r4
 172 00de 0221     		movs	r1, #2
 173 00e0 3046     		mov	r0, r6
 174 00e2 FFF7FEFF 		bl	HAL_GPIO_WritePin
 175              	.LVL2:
 395:Core/Src/main.c **** 
 396:Core/Src/main.c ****   /*Configure GPIO pin : B1_Pin */
ARM GAS  C:\Users\Aaron\AppData\Local\Temp\cc8VdFcK.s 			page 11


 397:Core/Src/main.c ****   GPIO_InitStruct.Pin = B1_Pin;
 176              		.loc 1 397 3 view .LVU48
 177              		.loc 1 397 23 is_stmt 0 view .LVU49
 178 00e6 4FF40053 		mov	r3, #8192
 179 00ea 0793     		str	r3, [sp, #28]
 398:Core/Src/main.c ****   GPIO_InitStruct.Mode = GPIO_MODE_INPUT;
 180              		.loc 1 398 3 is_stmt 1 view .LVU50
 181              		.loc 1 398 24 is_stmt 0 view .LVU51
 182 00ec 0894     		str	r4, [sp, #32]
 399:Core/Src/main.c ****   GPIO_InitStruct.Pull = GPIO_NOPULL;
 183              		.loc 1 399 3 is_stmt 1 view .LVU52
 184              		.loc 1 399 24 is_stmt 0 view .LVU53
 185 00ee 0994     		str	r4, [sp, #36]
 400:Core/Src/main.c ****   HAL_GPIO_Init(B1_GPIO_Port, &GPIO_InitStruct);
 186              		.loc 1 400 3 is_stmt 1 view .LVU54
 187 00f0 07A9     		add	r1, sp, #28
 188 00f2 2448     		ldr	r0, .L3+12
 189 00f4 FFF7FEFF 		bl	HAL_GPIO_Init
 190              	.LVL3:
 401:Core/Src/main.c **** 
 402:Core/Src/main.c ****   /*Configure GPIO pins : LED_GREEN_Pin LED_RED_Pin */
 403:Core/Src/main.c ****   GPIO_InitStruct.Pin = LED_GREEN_Pin|LED_RED_Pin;
 191              		.loc 1 403 3 view .LVU55
 192              		.loc 1 403 23 is_stmt 0 view .LVU56
 193 00f8 44F20103 		movw	r3, #16385
 194 00fc 0793     		str	r3, [sp, #28]
 404:Core/Src/main.c ****   GPIO_InitStruct.Mode = GPIO_MODE_OUTPUT_PP;
 195              		.loc 1 404 3 is_stmt 1 view .LVU57
 196              		.loc 1 404 24 is_stmt 0 view .LVU58
 197 00fe 0125     		movs	r5, #1
 198 0100 0895     		str	r5, [sp, #32]
 405:Core/Src/main.c ****   GPIO_InitStruct.Pull = GPIO_NOPULL;
 199              		.loc 1 405 3 is_stmt 1 view .LVU59
 200              		.loc 1 405 24 is_stmt 0 view .LVU60
 201 0102 0994     		str	r4, [sp, #36]
 406:Core/Src/main.c ****   GPIO_InitStruct.Speed = GPIO_SPEED_FREQ_LOW;
 202              		.loc 1 406 3 is_stmt 1 view .LVU61
 203              		.loc 1 406 25 is_stmt 0 view .LVU62
 204 0104 0A94     		str	r4, [sp, #40]
 407:Core/Src/main.c ****   HAL_GPIO_Init(GPIOB, &GPIO_InitStruct);
 205              		.loc 1 407 3 is_stmt 1 view .LVU63
 206 0106 07A9     		add	r1, sp, #28
 207 0108 3846     		mov	r0, r7
 208 010a FFF7FEFF 		bl	HAL_GPIO_Init
 209              	.LVL4:
 408:Core/Src/main.c **** 
 409:Core/Src/main.c ****   /*Configure GPIO pin : USB_FS_PWR_EN_Pin */
 410:Core/Src/main.c ****   GPIO_InitStruct.Pin = USB_FS_PWR_EN_Pin;
 210              		.loc 1 410 3 view .LVU64
 211              		.loc 1 410 23 is_stmt 0 view .LVU65
 212 010e 4FF48067 		mov	r7, #1024
 213 0112 0797     		str	r7, [sp, #28]
 411:Core/Src/main.c ****   GPIO_InitStruct.Mode = GPIO_MODE_OUTPUT_PP;
 214              		.loc 1 411 3 is_stmt 1 view .LVU66
 215              		.loc 1 411 24 is_stmt 0 view .LVU67
 216 0114 0895     		str	r5, [sp, #32]
 412:Core/Src/main.c ****   GPIO_InitStruct.Pull = GPIO_NOPULL;
ARM GAS  C:\Users\Aaron\AppData\Local\Temp\cc8VdFcK.s 			page 12


 217              		.loc 1 412 3 is_stmt 1 view .LVU68
 218              		.loc 1 412 24 is_stmt 0 view .LVU69
 219 0116 0994     		str	r4, [sp, #36]
 413:Core/Src/main.c ****   GPIO_InitStruct.Speed = GPIO_SPEED_FREQ_LOW;
 220              		.loc 1 413 3 is_stmt 1 view .LVU70
 221              		.loc 1 413 25 is_stmt 0 view .LVU71
 222 0118 0A94     		str	r4, [sp, #40]
 414:Core/Src/main.c ****   HAL_GPIO_Init(USB_FS_PWR_EN_GPIO_Port, &GPIO_InitStruct);
 223              		.loc 1 414 3 is_stmt 1 view .LVU72
 224 011a 07A9     		add	r1, sp, #28
 225 011c 4046     		mov	r0, r8
 226 011e FFF7FEFF 		bl	HAL_GPIO_Init
 227              	.LVL5:
 415:Core/Src/main.c **** 
 416:Core/Src/main.c ****   /*Configure GPIO pin : USB_FS_OVCR_Pin */
 417:Core/Src/main.c ****   GPIO_InitStruct.Pin = USB_FS_OVCR_Pin;
 228              		.loc 1 417 3 view .LVU73
 229              		.loc 1 417 23 is_stmt 0 view .LVU74
 230 0122 8023     		movs	r3, #128
 231 0124 0793     		str	r3, [sp, #28]
 418:Core/Src/main.c ****   GPIO_InitStruct.Mode = GPIO_MODE_IT_RISING;
 232              		.loc 1 418 3 is_stmt 1 view .LVU75
 233              		.loc 1 418 24 is_stmt 0 view .LVU76
 234 0126 4FF48813 		mov	r3, #1114112
 235 012a 0893     		str	r3, [sp, #32]
 419:Core/Src/main.c ****   GPIO_InitStruct.Pull = GPIO_NOPULL;
 236              		.loc 1 419 3 is_stmt 1 view .LVU77
 237              		.loc 1 419 24 is_stmt 0 view .LVU78
 238 012c 0994     		str	r4, [sp, #36]
 420:Core/Src/main.c ****   HAL_GPIO_Init(USB_FS_OVCR_GPIO_Port, &GPIO_InitStruct);
 239              		.loc 1 420 3 is_stmt 1 view .LVU79
 240 012e 07A9     		add	r1, sp, #28
 241 0130 1548     		ldr	r0, .L3+16
 242 0132 FFF7FEFF 		bl	HAL_GPIO_Init
 243              	.LVL6:
 421:Core/Src/main.c **** 
 422:Core/Src/main.c ****   /*Configure GPIO pin : USB_FS_VBUS_Pin */
 423:Core/Src/main.c ****   GPIO_InitStruct.Pin = USB_FS_VBUS_Pin;
 244              		.loc 1 423 3 view .LVU80
 245              		.loc 1 423 23 is_stmt 0 view .LVU81
 246 0136 4FF40073 		mov	r3, #512
 247 013a 0793     		str	r3, [sp, #28]
 424:Core/Src/main.c ****   GPIO_InitStruct.Mode = GPIO_MODE_INPUT;
 248              		.loc 1 424 3 is_stmt 1 view .LVU82
 249              		.loc 1 424 24 is_stmt 0 view .LVU83
 250 013c 0894     		str	r4, [sp, #32]
 425:Core/Src/main.c ****   GPIO_InitStruct.Pull = GPIO_NOPULL;
 251              		.loc 1 425 3 is_stmt 1 view .LVU84
 252              		.loc 1 425 24 is_stmt 0 view .LVU85
 253 013e 0994     		str	r4, [sp, #36]
 426:Core/Src/main.c ****   HAL_GPIO_Init(USB_FS_VBUS_GPIO_Port, &GPIO_InitStruct);
 254              		.loc 1 426 3 is_stmt 1 view .LVU86
 255 0140 A8F54068 		sub	r8, r8, #3072
 256 0144 07A9     		add	r1, sp, #28
 257 0146 4046     		mov	r0, r8
 258 0148 FFF7FEFF 		bl	HAL_GPIO_Init
 259              	.LVL7:
ARM GAS  C:\Users\Aaron\AppData\Local\Temp\cc8VdFcK.s 			page 13


 427:Core/Src/main.c **** 
 428:Core/Src/main.c ****   /*Configure GPIO pin : USB_FS_ID_Pin */
 429:Core/Src/main.c ****   GPIO_InitStruct.Pin = USB_FS_ID_Pin;
 260              		.loc 1 429 3 view .LVU87
 261              		.loc 1 429 23 is_stmt 0 view .LVU88
 262 014c 0797     		str	r7, [sp, #28]
 430:Core/Src/main.c ****   GPIO_InitStruct.Mode = GPIO_MODE_AF_PP;
 263              		.loc 1 430 3 is_stmt 1 view .LVU89
 264              		.loc 1 430 24 is_stmt 0 view .LVU90
 265 014e 0227     		movs	r7, #2
 266 0150 0897     		str	r7, [sp, #32]
 431:Core/Src/main.c ****   GPIO_InitStruct.Pull = GPIO_NOPULL;
 267              		.loc 1 431 3 is_stmt 1 view .LVU91
 268              		.loc 1 431 24 is_stmt 0 view .LVU92
 269 0152 0994     		str	r4, [sp, #36]
 432:Core/Src/main.c ****   GPIO_InitStruct.Speed = GPIO_SPEED_FREQ_LOW;
 270              		.loc 1 432 3 is_stmt 1 view .LVU93
 271              		.loc 1 432 25 is_stmt 0 view .LVU94
 272 0154 0A94     		str	r4, [sp, #40]
 433:Core/Src/main.c ****   GPIO_InitStruct.Alternate = GPIO_AF10_OTG1_HS;
 273              		.loc 1 433 3 is_stmt 1 view .LVU95
 274              		.loc 1 433 29 is_stmt 0 view .LVU96
 275 0156 0A23     		movs	r3, #10
 276 0158 0B93     		str	r3, [sp, #44]
 434:Core/Src/main.c ****   HAL_GPIO_Init(USB_FS_ID_GPIO_Port, &GPIO_InitStruct);
 277              		.loc 1 434 3 is_stmt 1 view .LVU97
 278 015a 07A9     		add	r1, sp, #28
 279 015c 4046     		mov	r0, r8
 280 015e FFF7FEFF 		bl	HAL_GPIO_Init
 281              	.LVL8:
 435:Core/Src/main.c **** 
 436:Core/Src/main.c ****   /*Configure GPIO pin : LED_YELLOW_Pin */
 437:Core/Src/main.c ****   GPIO_InitStruct.Pin = LED_YELLOW_Pin;
 282              		.loc 1 437 3 view .LVU98
 283              		.loc 1 437 23 is_stmt 0 view .LVU99
 284 0162 0797     		str	r7, [sp, #28]
 438:Core/Src/main.c ****   GPIO_InitStruct.Mode = GPIO_MODE_OUTPUT_PP;
 285              		.loc 1 438 3 is_stmt 1 view .LVU100
 286              		.loc 1 438 24 is_stmt 0 view .LVU101
 287 0164 0895     		str	r5, [sp, #32]
 439:Core/Src/main.c ****   GPIO_InitStruct.Pull = GPIO_NOPULL;
 288              		.loc 1 439 3 is_stmt 1 view .LVU102
 289              		.loc 1 439 24 is_stmt 0 view .LVU103
 290 0166 0994     		str	r4, [sp, #36]
 440:Core/Src/main.c ****   GPIO_InitStruct.Speed = GPIO_SPEED_FREQ_LOW;
 291              		.loc 1 440 3 is_stmt 1 view .LVU104
 292              		.loc 1 440 25 is_stmt 0 view .LVU105
 293 0168 0A94     		str	r4, [sp, #40]
 441:Core/Src/main.c ****   HAL_GPIO_Init(LED_YELLOW_GPIO_Port, &GPIO_InitStruct);
 294              		.loc 1 441 3 is_stmt 1 view .LVU106
 295 016a 07A9     		add	r1, sp, #28
 296 016c 3046     		mov	r0, r6
 297 016e FFF7FEFF 		bl	HAL_GPIO_Init
 298              	.LVL9:
 442:Core/Src/main.c **** 
 443:Core/Src/main.c **** /* USER CODE BEGIN MX_GPIO_Init_2 */
 444:Core/Src/main.c **** /* USER CODE END MX_GPIO_Init_2 */
ARM GAS  C:\Users\Aaron\AppData\Local\Temp\cc8VdFcK.s 			page 14


 445:Core/Src/main.c **** }
 299              		.loc 1 445 1 is_stmt 0 view .LVU107
 300 0172 0CB0     		add	sp, sp, #48
 301              		.cfi_def_cfa_offset 24
 302              		@ sp needed
 303 0174 BDE8F081 		pop	{r4, r5, r6, r7, r8, pc}
 304              	.L4:
 305              		.align	2
 306              	.L3:
 307 0178 00440258 		.word	1476543488
 308 017c 00040258 		.word	1476527104
 309 0180 00100258 		.word	1476530176
 310 0184 00080258 		.word	1476528128
 311 0188 00180258 		.word	1476532224
 312 018c 000C0258 		.word	1476529152
 313              		.cfi_endproc
 314              	.LFE153:
 316              		.section	.text.StartBlinkGreen,"ax",%progbits
 317              		.align	1
 318              		.global	StartBlinkGreen
 319              		.syntax unified
 320              		.thumb
 321              		.thumb_func
 323              	StartBlinkGreen:
 324              	.LFB154:
 446:Core/Src/main.c **** 
 447:Core/Src/main.c **** /* USER CODE BEGIN 4 */
 448:Core/Src/main.c **** 
 449:Core/Src/main.c **** /* USER CODE END 4 */
 450:Core/Src/main.c **** 
 451:Core/Src/main.c **** /* USER CODE BEGIN Header_StartBlinkGreen */
 452:Core/Src/main.c **** /**
 453:Core/Src/main.c ****   * @brief  Function implementing the blinkGreen thread.
 454:Core/Src/main.c ****   * @param  argument: Not used
 455:Core/Src/main.c ****   * @retval None
 456:Core/Src/main.c ****   */
 457:Core/Src/main.c **** /* USER CODE END Header_StartBlinkGreen */
 458:Core/Src/main.c **** void StartBlinkGreen(void *argument)
 459:Core/Src/main.c **** {
 325              		.loc 1 459 1 is_stmt 1 view -0
 326              		.cfi_startproc
 327              		@ Volatile: function does not return.
 328              		@ args = 0, pretend = 0, frame = 0
 329              		@ frame_needed = 0, uses_anonymous_args = 0
 330              	.LVL10:
 331              		.loc 1 459 1 is_stmt 0 view .LVU109
 332 0000 08B5     		push	{r3, lr}
 333              		.cfi_def_cfa_offset 8
 334              		.cfi_offset 3, -8
 335              		.cfi_offset 14, -4
 336              	.LVL11:
 337              	.L6:
 460:Core/Src/main.c ****   /* USER CODE BEGIN 5 */
 461:Core/Src/main.c ****   /* Infinite loop */
 462:Core/Src/main.c ****   for(;;)
 338              		.loc 1 462 3 is_stmt 1 view .LVU110
 463:Core/Src/main.c ****   {
ARM GAS  C:\Users\Aaron\AppData\Local\Temp\cc8VdFcK.s 			page 15


 464:Core/Src/main.c ****     HAL_GPIO_TogglePin(GPIOB, LED_GREEN_Pin);
 339              		.loc 1 464 5 view .LVU111
 340 0002 0121     		movs	r1, #1
 341 0004 0348     		ldr	r0, .L8
 342 0006 FFF7FEFF 		bl	HAL_GPIO_TogglePin
 343              	.LVL12:
 465:Core/Src/main.c ****     osDelay(500);
 344              		.loc 1 465 5 discriminator 1 view .LVU112
 345 000a 4FF4FA70 		mov	r0, #500
 346 000e FFF7FEFF 		bl	osDelay
 347              	.LVL13:
 462:Core/Src/main.c ****   {
 348              		.loc 1 462 3 view .LVU113
 349 0012 F6E7     		b	.L6
 350              	.L9:
 351              		.align	2
 352              	.L8:
 353 0014 00040258 		.word	1476527104
 354              		.cfi_endproc
 355              	.LFE154:
 357              		.section	.text.StartBlinkRed,"ax",%progbits
 358              		.align	1
 359              		.global	StartBlinkRed
 360              		.syntax unified
 361              		.thumb
 362              		.thumb_func
 364              	StartBlinkRed:
 365              	.LFB155:
 466:Core/Src/main.c ****   }
 467:Core/Src/main.c ****   /* USER CODE END 5 */
 468:Core/Src/main.c ****   osThreadTerminate(NULL);
 469:Core/Src/main.c **** }
 470:Core/Src/main.c **** 
 471:Core/Src/main.c **** /* USER CODE BEGIN Header_StartBlinkRed */
 472:Core/Src/main.c **** /**
 473:Core/Src/main.c **** * @brief Function implementing the blinkRed thread.
 474:Core/Src/main.c **** * @param argument: Not used
 475:Core/Src/main.c **** * @retval None
 476:Core/Src/main.c **** */
 477:Core/Src/main.c **** /* USER CODE END Header_StartBlinkRed */
 478:Core/Src/main.c **** void StartBlinkRed(void *argument)
 479:Core/Src/main.c **** {
 366              		.loc 1 479 1 view -0
 367              		.cfi_startproc
 368              		@ Volatile: function does not return.
 369              		@ args = 0, pretend = 0, frame = 0
 370              		@ frame_needed = 0, uses_anonymous_args = 0
 371              	.LVL14:
 372              		.loc 1 479 1 is_stmt 0 view .LVU115
 373 0000 08B5     		push	{r3, lr}
 374              		.cfi_def_cfa_offset 8
 375              		.cfi_offset 3, -8
 376              		.cfi_offset 14, -4
 377              	.LVL15:
 378              	.L11:
 480:Core/Src/main.c ****   /* USER CODE BEGIN StartBlinkRed */
 481:Core/Src/main.c ****   /* Infinite loop */
ARM GAS  C:\Users\Aaron\AppData\Local\Temp\cc8VdFcK.s 			page 16


 482:Core/Src/main.c ****   for(;;)
 379              		.loc 1 482 3 is_stmt 1 view .LVU116
 483:Core/Src/main.c ****   {
 484:Core/Src/main.c ****     HAL_GPIO_TogglePin(GPIOB, LED_RED_Pin);
 380              		.loc 1 484 5 view .LVU117
 381 0002 4FF48041 		mov	r1, #16384
 382 0006 0348     		ldr	r0, .L13
 383 0008 FFF7FEFF 		bl	HAL_GPIO_TogglePin
 384              	.LVL16:
 485:Core/Src/main.c ****     osDelay(100);
 385              		.loc 1 485 5 discriminator 1 view .LVU118
 386 000c 6420     		movs	r0, #100
 387 000e FFF7FEFF 		bl	osDelay
 388              	.LVL17:
 482:Core/Src/main.c ****   {
 389              		.loc 1 482 3 view .LVU119
 390 0012 F6E7     		b	.L11
 391              	.L14:
 392              		.align	2
 393              	.L13:
 394 0014 00040258 		.word	1476527104
 395              		.cfi_endproc
 396              	.LFE155:
 398              		.section	.text.HAL_TIM_PeriodElapsedCallback,"ax",%progbits
 399              		.align	1
 400              		.global	HAL_TIM_PeriodElapsedCallback
 401              		.syntax unified
 402              		.thumb
 403              		.thumb_func
 405              	HAL_TIM_PeriodElapsedCallback:
 406              	.LVL18:
 407              	.LFB156:
 486:Core/Src/main.c ****   }
 487:Core/Src/main.c ****   /* USER CODE END StartBlinkRed */
 488:Core/Src/main.c ****   osThreadTerminate(NULL);
 489:Core/Src/main.c **** }
 490:Core/Src/main.c **** 
 491:Core/Src/main.c **** /**
 492:Core/Src/main.c ****   * @brief  Period elapsed callback in non blocking mode
 493:Core/Src/main.c ****   * @note   This function is called  when TIM6 interrupt took place, inside
 494:Core/Src/main.c ****   * HAL_TIM_IRQHandler(). It makes a direct call to HAL_IncTick() to increment
 495:Core/Src/main.c ****   * a global variable "uwTick" used as application time base.
 496:Core/Src/main.c ****   * @param  htim : TIM handle
 497:Core/Src/main.c ****   * @retval None
 498:Core/Src/main.c ****   */
 499:Core/Src/main.c **** void HAL_TIM_PeriodElapsedCallback(TIM_HandleTypeDef *htim)
 500:Core/Src/main.c **** {
 408              		.loc 1 500 1 view -0
 409              		.cfi_startproc
 410              		@ args = 0, pretend = 0, frame = 0
 411              		@ frame_needed = 0, uses_anonymous_args = 0
 412              		.loc 1 500 1 is_stmt 0 view .LVU121
 413 0000 08B5     		push	{r3, lr}
 414              		.cfi_def_cfa_offset 8
 415              		.cfi_offset 3, -8
 416              		.cfi_offset 14, -4
 501:Core/Src/main.c ****   /* USER CODE BEGIN Callback 0 */
ARM GAS  C:\Users\Aaron\AppData\Local\Temp\cc8VdFcK.s 			page 17


 502:Core/Src/main.c **** 
 503:Core/Src/main.c ****   /* USER CODE END Callback 0 */
 504:Core/Src/main.c ****   if (htim->Instance == TIM6) {
 417              		.loc 1 504 3 is_stmt 1 view .LVU122
 418              		.loc 1 504 11 is_stmt 0 view .LVU123
 419 0002 0268     		ldr	r2, [r0]
 420              		.loc 1 504 6 view .LVU124
 421 0004 034B     		ldr	r3, .L19
 422 0006 9A42     		cmp	r2, r3
 423 0008 00D0     		beq	.L18
 424              	.LVL19:
 425              	.L15:
 505:Core/Src/main.c ****     HAL_IncTick();
 506:Core/Src/main.c ****   }
 507:Core/Src/main.c ****   /* USER CODE BEGIN Callback 1 */
 508:Core/Src/main.c **** 
 509:Core/Src/main.c ****   /* USER CODE END Callback 1 */
 510:Core/Src/main.c **** }
 426              		.loc 1 510 1 view .LVU125
 427 000a 08BD     		pop	{r3, pc}
 428              	.LVL20:
 429              	.L18:
 505:Core/Src/main.c ****     HAL_IncTick();
 430              		.loc 1 505 5 is_stmt 1 view .LVU126
 431 000c FFF7FEFF 		bl	HAL_IncTick
 432              	.LVL21:
 433              		.loc 1 510 1 is_stmt 0 view .LVU127
 434 0010 FBE7     		b	.L15
 435              	.L20:
 436 0012 00BF     		.align	2
 437              	.L19:
 438 0014 00100040 		.word	1073745920
 439              		.cfi_endproc
 440              	.LFE156:
 442              		.section	.text.Error_Handler,"ax",%progbits
 443              		.align	1
 444              		.global	Error_Handler
 445              		.syntax unified
 446              		.thumb
 447              		.thumb_func
 449              	Error_Handler:
 450              	.LFB157:
 511:Core/Src/main.c **** 
 512:Core/Src/main.c **** /**
 513:Core/Src/main.c ****   * @brief  This function is executed in case of error occurrence.
 514:Core/Src/main.c ****   * @retval None
 515:Core/Src/main.c ****   */
 516:Core/Src/main.c **** void Error_Handler(void)
 517:Core/Src/main.c **** {
 451              		.loc 1 517 1 is_stmt 1 view -0
 452              		.cfi_startproc
 453              		@ Volatile: function does not return.
 454              		@ args = 0, pretend = 0, frame = 0
 455              		@ frame_needed = 0, uses_anonymous_args = 0
 456              		@ link register save eliminated.
 518:Core/Src/main.c ****   /* USER CODE BEGIN Error_Handler_Debug */
 519:Core/Src/main.c ****   /* User can add his own implementation to report the HAL error return state */
ARM GAS  C:\Users\Aaron\AppData\Local\Temp\cc8VdFcK.s 			page 18


 520:Core/Src/main.c ****   __disable_irq();
 457              		.loc 1 520 3 view .LVU129
 458              	.LBB11:
 459              	.LBI11:
 460              		.file 2 "Drivers/CMSIS/Include/cmsis_gcc.h"
   1:Drivers/CMSIS/Include/cmsis_gcc.h **** /**************************************************************************//**
   2:Drivers/CMSIS/Include/cmsis_gcc.h ****  * @file     cmsis_gcc.h
   3:Drivers/CMSIS/Include/cmsis_gcc.h ****  * @brief    CMSIS compiler GCC header file
   4:Drivers/CMSIS/Include/cmsis_gcc.h ****  * @version  V5.2.0
   5:Drivers/CMSIS/Include/cmsis_gcc.h ****  * @date     08. May 2019
   6:Drivers/CMSIS/Include/cmsis_gcc.h ****  ******************************************************************************/
   7:Drivers/CMSIS/Include/cmsis_gcc.h **** /*
   8:Drivers/CMSIS/Include/cmsis_gcc.h ****  * Copyright (c) 2009-2019 Arm Limited. All rights reserved.
   9:Drivers/CMSIS/Include/cmsis_gcc.h ****  *
  10:Drivers/CMSIS/Include/cmsis_gcc.h ****  * SPDX-License-Identifier: Apache-2.0
  11:Drivers/CMSIS/Include/cmsis_gcc.h ****  *
  12:Drivers/CMSIS/Include/cmsis_gcc.h ****  * Licensed under the Apache License, Version 2.0 (the License); you may
  13:Drivers/CMSIS/Include/cmsis_gcc.h ****  * not use this file except in compliance with the License.
  14:Drivers/CMSIS/Include/cmsis_gcc.h ****  * You may obtain a copy of the License at
  15:Drivers/CMSIS/Include/cmsis_gcc.h ****  *
  16:Drivers/CMSIS/Include/cmsis_gcc.h ****  * www.apache.org/licenses/LICENSE-2.0
  17:Drivers/CMSIS/Include/cmsis_gcc.h ****  *
  18:Drivers/CMSIS/Include/cmsis_gcc.h ****  * Unless required by applicable law or agreed to in writing, software
  19:Drivers/CMSIS/Include/cmsis_gcc.h ****  * distributed under the License is distributed on an AS IS BASIS, WITHOUT
  20:Drivers/CMSIS/Include/cmsis_gcc.h ****  * WARRANTIES OR CONDITIONS OF ANY KIND, either express or implied.
  21:Drivers/CMSIS/Include/cmsis_gcc.h ****  * See the License for the specific language governing permissions and
  22:Drivers/CMSIS/Include/cmsis_gcc.h ****  * limitations under the License.
  23:Drivers/CMSIS/Include/cmsis_gcc.h ****  */
  24:Drivers/CMSIS/Include/cmsis_gcc.h **** 
  25:Drivers/CMSIS/Include/cmsis_gcc.h **** #ifndef __CMSIS_GCC_H
  26:Drivers/CMSIS/Include/cmsis_gcc.h **** #define __CMSIS_GCC_H
  27:Drivers/CMSIS/Include/cmsis_gcc.h **** 
  28:Drivers/CMSIS/Include/cmsis_gcc.h **** /* ignore some GCC warnings */
  29:Drivers/CMSIS/Include/cmsis_gcc.h **** #pragma GCC diagnostic push
  30:Drivers/CMSIS/Include/cmsis_gcc.h **** #pragma GCC diagnostic ignored "-Wsign-conversion"
  31:Drivers/CMSIS/Include/cmsis_gcc.h **** #pragma GCC diagnostic ignored "-Wconversion"
  32:Drivers/CMSIS/Include/cmsis_gcc.h **** #pragma GCC diagnostic ignored "-Wunused-parameter"
  33:Drivers/CMSIS/Include/cmsis_gcc.h **** 
  34:Drivers/CMSIS/Include/cmsis_gcc.h **** /* Fallback for __has_builtin */
  35:Drivers/CMSIS/Include/cmsis_gcc.h **** #ifndef __has_builtin
  36:Drivers/CMSIS/Include/cmsis_gcc.h ****   #define __has_builtin(x) (0)
  37:Drivers/CMSIS/Include/cmsis_gcc.h **** #endif
  38:Drivers/CMSIS/Include/cmsis_gcc.h **** 
  39:Drivers/CMSIS/Include/cmsis_gcc.h **** /* CMSIS compiler specific defines */
  40:Drivers/CMSIS/Include/cmsis_gcc.h **** #ifndef   __ASM
  41:Drivers/CMSIS/Include/cmsis_gcc.h ****   #define __ASM                                  __asm
  42:Drivers/CMSIS/Include/cmsis_gcc.h **** #endif
  43:Drivers/CMSIS/Include/cmsis_gcc.h **** #ifndef   __INLINE
  44:Drivers/CMSIS/Include/cmsis_gcc.h ****   #define __INLINE                               inline
  45:Drivers/CMSIS/Include/cmsis_gcc.h **** #endif
  46:Drivers/CMSIS/Include/cmsis_gcc.h **** #ifndef   __STATIC_INLINE
  47:Drivers/CMSIS/Include/cmsis_gcc.h ****   #define __STATIC_INLINE                        static inline
  48:Drivers/CMSIS/Include/cmsis_gcc.h **** #endif
  49:Drivers/CMSIS/Include/cmsis_gcc.h **** #ifndef   __STATIC_FORCEINLINE                 
  50:Drivers/CMSIS/Include/cmsis_gcc.h ****   #define __STATIC_FORCEINLINE                   __attribute__((always_inline)) static inline
  51:Drivers/CMSIS/Include/cmsis_gcc.h **** #endif                                           
  52:Drivers/CMSIS/Include/cmsis_gcc.h **** #ifndef   __NO_RETURN
ARM GAS  C:\Users\Aaron\AppData\Local\Temp\cc8VdFcK.s 			page 19


  53:Drivers/CMSIS/Include/cmsis_gcc.h ****   #define __NO_RETURN                            __attribute__((__noreturn__))
  54:Drivers/CMSIS/Include/cmsis_gcc.h **** #endif
  55:Drivers/CMSIS/Include/cmsis_gcc.h **** #ifndef   __USED
  56:Drivers/CMSIS/Include/cmsis_gcc.h ****   #define __USED                                 __attribute__((used))
  57:Drivers/CMSIS/Include/cmsis_gcc.h **** #endif
  58:Drivers/CMSIS/Include/cmsis_gcc.h **** #ifndef   __WEAK
  59:Drivers/CMSIS/Include/cmsis_gcc.h ****   #define __WEAK                                 __attribute__((weak))
  60:Drivers/CMSIS/Include/cmsis_gcc.h **** #endif
  61:Drivers/CMSIS/Include/cmsis_gcc.h **** #ifndef   __PACKED
  62:Drivers/CMSIS/Include/cmsis_gcc.h ****   #define __PACKED                               __attribute__((packed, aligned(1)))
  63:Drivers/CMSIS/Include/cmsis_gcc.h **** #endif
  64:Drivers/CMSIS/Include/cmsis_gcc.h **** #ifndef   __PACKED_STRUCT
  65:Drivers/CMSIS/Include/cmsis_gcc.h ****   #define __PACKED_STRUCT                        struct __attribute__((packed, aligned(1)))
  66:Drivers/CMSIS/Include/cmsis_gcc.h **** #endif
  67:Drivers/CMSIS/Include/cmsis_gcc.h **** #ifndef   __PACKED_UNION
  68:Drivers/CMSIS/Include/cmsis_gcc.h ****   #define __PACKED_UNION                         union __attribute__((packed, aligned(1)))
  69:Drivers/CMSIS/Include/cmsis_gcc.h **** #endif
  70:Drivers/CMSIS/Include/cmsis_gcc.h **** #ifndef   __UNALIGNED_UINT32        /* deprecated */
  71:Drivers/CMSIS/Include/cmsis_gcc.h ****   #pragma GCC diagnostic push
  72:Drivers/CMSIS/Include/cmsis_gcc.h ****   #pragma GCC diagnostic ignored "-Wpacked"
  73:Drivers/CMSIS/Include/cmsis_gcc.h ****   #pragma GCC diagnostic ignored "-Wattributes"
  74:Drivers/CMSIS/Include/cmsis_gcc.h ****   struct __attribute__((packed)) T_UINT32 { uint32_t v; };
  75:Drivers/CMSIS/Include/cmsis_gcc.h ****   #pragma GCC diagnostic pop
  76:Drivers/CMSIS/Include/cmsis_gcc.h ****   #define __UNALIGNED_UINT32(x)                  (((struct T_UINT32 *)(x))->v)
  77:Drivers/CMSIS/Include/cmsis_gcc.h **** #endif
  78:Drivers/CMSIS/Include/cmsis_gcc.h **** #ifndef   __UNALIGNED_UINT16_WRITE
  79:Drivers/CMSIS/Include/cmsis_gcc.h ****   #pragma GCC diagnostic push
  80:Drivers/CMSIS/Include/cmsis_gcc.h ****   #pragma GCC diagnostic ignored "-Wpacked"
  81:Drivers/CMSIS/Include/cmsis_gcc.h ****   #pragma GCC diagnostic ignored "-Wattributes"
  82:Drivers/CMSIS/Include/cmsis_gcc.h ****   __PACKED_STRUCT T_UINT16_WRITE { uint16_t v; };
  83:Drivers/CMSIS/Include/cmsis_gcc.h ****   #pragma GCC diagnostic pop
  84:Drivers/CMSIS/Include/cmsis_gcc.h ****   #define __UNALIGNED_UINT16_WRITE(addr, val)    (void)((((struct T_UINT16_WRITE *)(void *)(addr))-
  85:Drivers/CMSIS/Include/cmsis_gcc.h **** #endif
  86:Drivers/CMSIS/Include/cmsis_gcc.h **** #ifndef   __UNALIGNED_UINT16_READ
  87:Drivers/CMSIS/Include/cmsis_gcc.h ****   #pragma GCC diagnostic push
  88:Drivers/CMSIS/Include/cmsis_gcc.h ****   #pragma GCC diagnostic ignored "-Wpacked"
  89:Drivers/CMSIS/Include/cmsis_gcc.h ****   #pragma GCC diagnostic ignored "-Wattributes"
  90:Drivers/CMSIS/Include/cmsis_gcc.h ****   __PACKED_STRUCT T_UINT16_READ { uint16_t v; };
  91:Drivers/CMSIS/Include/cmsis_gcc.h ****   #pragma GCC diagnostic pop
  92:Drivers/CMSIS/Include/cmsis_gcc.h ****   #define __UNALIGNED_UINT16_READ(addr)          (((const struct T_UINT16_READ *)(const void *)(add
  93:Drivers/CMSIS/Include/cmsis_gcc.h **** #endif
  94:Drivers/CMSIS/Include/cmsis_gcc.h **** #ifndef   __UNALIGNED_UINT32_WRITE
  95:Drivers/CMSIS/Include/cmsis_gcc.h ****   #pragma GCC diagnostic push
  96:Drivers/CMSIS/Include/cmsis_gcc.h ****   #pragma GCC diagnostic ignored "-Wpacked"
  97:Drivers/CMSIS/Include/cmsis_gcc.h ****   #pragma GCC diagnostic ignored "-Wattributes"
  98:Drivers/CMSIS/Include/cmsis_gcc.h ****   __PACKED_STRUCT T_UINT32_WRITE { uint32_t v; };
  99:Drivers/CMSIS/Include/cmsis_gcc.h ****   #pragma GCC diagnostic pop
 100:Drivers/CMSIS/Include/cmsis_gcc.h ****   #define __UNALIGNED_UINT32_WRITE(addr, val)    (void)((((struct T_UINT32_WRITE *)(void *)(addr))-
 101:Drivers/CMSIS/Include/cmsis_gcc.h **** #endif
 102:Drivers/CMSIS/Include/cmsis_gcc.h **** #ifndef   __UNALIGNED_UINT32_READ
 103:Drivers/CMSIS/Include/cmsis_gcc.h ****   #pragma GCC diagnostic push
 104:Drivers/CMSIS/Include/cmsis_gcc.h ****   #pragma GCC diagnostic ignored "-Wpacked"
 105:Drivers/CMSIS/Include/cmsis_gcc.h ****   #pragma GCC diagnostic ignored "-Wattributes"
 106:Drivers/CMSIS/Include/cmsis_gcc.h ****   __PACKED_STRUCT T_UINT32_READ { uint32_t v; };
 107:Drivers/CMSIS/Include/cmsis_gcc.h ****   #pragma GCC diagnostic pop
 108:Drivers/CMSIS/Include/cmsis_gcc.h ****   #define __UNALIGNED_UINT32_READ(addr)          (((const struct T_UINT32_READ *)(const void *)(add
 109:Drivers/CMSIS/Include/cmsis_gcc.h **** #endif
ARM GAS  C:\Users\Aaron\AppData\Local\Temp\cc8VdFcK.s 			page 20


 110:Drivers/CMSIS/Include/cmsis_gcc.h **** #ifndef   __ALIGNED
 111:Drivers/CMSIS/Include/cmsis_gcc.h ****   #define __ALIGNED(x)                           __attribute__((aligned(x)))
 112:Drivers/CMSIS/Include/cmsis_gcc.h **** #endif
 113:Drivers/CMSIS/Include/cmsis_gcc.h **** #ifndef   __RESTRICT
 114:Drivers/CMSIS/Include/cmsis_gcc.h ****   #define __RESTRICT                             __restrict
 115:Drivers/CMSIS/Include/cmsis_gcc.h **** #endif
 116:Drivers/CMSIS/Include/cmsis_gcc.h **** #ifndef   __COMPILER_BARRIER
 117:Drivers/CMSIS/Include/cmsis_gcc.h ****   #define __COMPILER_BARRIER()                   __ASM volatile("":::"memory")
 118:Drivers/CMSIS/Include/cmsis_gcc.h **** #endif
 119:Drivers/CMSIS/Include/cmsis_gcc.h **** 
 120:Drivers/CMSIS/Include/cmsis_gcc.h **** /* #########################  Startup and Lowlevel Init  ######################## */
 121:Drivers/CMSIS/Include/cmsis_gcc.h **** 
 122:Drivers/CMSIS/Include/cmsis_gcc.h **** #ifndef __PROGRAM_START
 123:Drivers/CMSIS/Include/cmsis_gcc.h **** 
 124:Drivers/CMSIS/Include/cmsis_gcc.h **** /**
 125:Drivers/CMSIS/Include/cmsis_gcc.h ****   \brief   Initializes data and bss sections
 126:Drivers/CMSIS/Include/cmsis_gcc.h ****   \details This default implementations initialized all data and additional bss
 127:Drivers/CMSIS/Include/cmsis_gcc.h ****            sections relying on .copy.table and .zero.table specified properly
 128:Drivers/CMSIS/Include/cmsis_gcc.h ****            in the used linker script.
 129:Drivers/CMSIS/Include/cmsis_gcc.h ****   
 130:Drivers/CMSIS/Include/cmsis_gcc.h ****  */
 131:Drivers/CMSIS/Include/cmsis_gcc.h **** __STATIC_FORCEINLINE __NO_RETURN void __cmsis_start(void)
 132:Drivers/CMSIS/Include/cmsis_gcc.h **** {
 133:Drivers/CMSIS/Include/cmsis_gcc.h ****   extern void _start(void) __NO_RETURN;
 134:Drivers/CMSIS/Include/cmsis_gcc.h ****   
 135:Drivers/CMSIS/Include/cmsis_gcc.h ****   typedef struct {
 136:Drivers/CMSIS/Include/cmsis_gcc.h ****     uint32_t const* src;
 137:Drivers/CMSIS/Include/cmsis_gcc.h ****     uint32_t* dest;
 138:Drivers/CMSIS/Include/cmsis_gcc.h ****     uint32_t  wlen;
 139:Drivers/CMSIS/Include/cmsis_gcc.h ****   } __copy_table_t;
 140:Drivers/CMSIS/Include/cmsis_gcc.h ****   
 141:Drivers/CMSIS/Include/cmsis_gcc.h ****   typedef struct {
 142:Drivers/CMSIS/Include/cmsis_gcc.h ****     uint32_t* dest;
 143:Drivers/CMSIS/Include/cmsis_gcc.h ****     uint32_t  wlen;
 144:Drivers/CMSIS/Include/cmsis_gcc.h ****   } __zero_table_t;
 145:Drivers/CMSIS/Include/cmsis_gcc.h ****   
 146:Drivers/CMSIS/Include/cmsis_gcc.h ****   extern const __copy_table_t __copy_table_start__;
 147:Drivers/CMSIS/Include/cmsis_gcc.h ****   extern const __copy_table_t __copy_table_end__;
 148:Drivers/CMSIS/Include/cmsis_gcc.h ****   extern const __zero_table_t __zero_table_start__;
 149:Drivers/CMSIS/Include/cmsis_gcc.h ****   extern const __zero_table_t __zero_table_end__;
 150:Drivers/CMSIS/Include/cmsis_gcc.h **** 
 151:Drivers/CMSIS/Include/cmsis_gcc.h ****   for (__copy_table_t const* pTable = &__copy_table_start__; pTable < &__copy_table_end__; ++pTable
 152:Drivers/CMSIS/Include/cmsis_gcc.h ****     for(uint32_t i=0u; i<pTable->wlen; ++i) {
 153:Drivers/CMSIS/Include/cmsis_gcc.h ****       pTable->dest[i] = pTable->src[i];
 154:Drivers/CMSIS/Include/cmsis_gcc.h ****     }
 155:Drivers/CMSIS/Include/cmsis_gcc.h ****   }
 156:Drivers/CMSIS/Include/cmsis_gcc.h ****  
 157:Drivers/CMSIS/Include/cmsis_gcc.h ****   for (__zero_table_t const* pTable = &__zero_table_start__; pTable < &__zero_table_end__; ++pTable
 158:Drivers/CMSIS/Include/cmsis_gcc.h ****     for(uint32_t i=0u; i<pTable->wlen; ++i) {
 159:Drivers/CMSIS/Include/cmsis_gcc.h ****       pTable->dest[i] = 0u;
 160:Drivers/CMSIS/Include/cmsis_gcc.h ****     }
 161:Drivers/CMSIS/Include/cmsis_gcc.h ****   }
 162:Drivers/CMSIS/Include/cmsis_gcc.h ****  
 163:Drivers/CMSIS/Include/cmsis_gcc.h ****   _start();
 164:Drivers/CMSIS/Include/cmsis_gcc.h **** }
 165:Drivers/CMSIS/Include/cmsis_gcc.h ****   
 166:Drivers/CMSIS/Include/cmsis_gcc.h **** #define __PROGRAM_START           __cmsis_start
ARM GAS  C:\Users\Aaron\AppData\Local\Temp\cc8VdFcK.s 			page 21


 167:Drivers/CMSIS/Include/cmsis_gcc.h **** #endif
 168:Drivers/CMSIS/Include/cmsis_gcc.h **** 
 169:Drivers/CMSIS/Include/cmsis_gcc.h **** #ifndef __INITIAL_SP
 170:Drivers/CMSIS/Include/cmsis_gcc.h **** #define __INITIAL_SP              __StackTop
 171:Drivers/CMSIS/Include/cmsis_gcc.h **** #endif
 172:Drivers/CMSIS/Include/cmsis_gcc.h **** 
 173:Drivers/CMSIS/Include/cmsis_gcc.h **** #ifndef __STACK_LIMIT
 174:Drivers/CMSIS/Include/cmsis_gcc.h **** #define __STACK_LIMIT             __StackLimit
 175:Drivers/CMSIS/Include/cmsis_gcc.h **** #endif
 176:Drivers/CMSIS/Include/cmsis_gcc.h **** 
 177:Drivers/CMSIS/Include/cmsis_gcc.h **** #ifndef __VECTOR_TABLE
 178:Drivers/CMSIS/Include/cmsis_gcc.h **** #define __VECTOR_TABLE            __Vectors
 179:Drivers/CMSIS/Include/cmsis_gcc.h **** #endif
 180:Drivers/CMSIS/Include/cmsis_gcc.h **** 
 181:Drivers/CMSIS/Include/cmsis_gcc.h **** #ifndef __VECTOR_TABLE_ATTRIBUTE
 182:Drivers/CMSIS/Include/cmsis_gcc.h **** #define __VECTOR_TABLE_ATTRIBUTE  __attribute((used, section(".vectors")))
 183:Drivers/CMSIS/Include/cmsis_gcc.h **** #endif
 184:Drivers/CMSIS/Include/cmsis_gcc.h **** 
 185:Drivers/CMSIS/Include/cmsis_gcc.h **** /* ###########################  Core Function Access  ########################### */
 186:Drivers/CMSIS/Include/cmsis_gcc.h **** /** \ingroup  CMSIS_Core_FunctionInterface
 187:Drivers/CMSIS/Include/cmsis_gcc.h ****     \defgroup CMSIS_Core_RegAccFunctions CMSIS Core Register Access Functions
 188:Drivers/CMSIS/Include/cmsis_gcc.h ****   @{
 189:Drivers/CMSIS/Include/cmsis_gcc.h ****  */
 190:Drivers/CMSIS/Include/cmsis_gcc.h **** 
 191:Drivers/CMSIS/Include/cmsis_gcc.h **** /**
 192:Drivers/CMSIS/Include/cmsis_gcc.h ****   \brief   Enable IRQ Interrupts
 193:Drivers/CMSIS/Include/cmsis_gcc.h ****   \details Enables IRQ interrupts by clearing the I-bit in the CPSR.
 194:Drivers/CMSIS/Include/cmsis_gcc.h ****            Can only be executed in Privileged modes.
 195:Drivers/CMSIS/Include/cmsis_gcc.h ****  */
 196:Drivers/CMSIS/Include/cmsis_gcc.h **** __STATIC_FORCEINLINE void __enable_irq(void)
 197:Drivers/CMSIS/Include/cmsis_gcc.h **** {
 198:Drivers/CMSIS/Include/cmsis_gcc.h ****   __ASM volatile ("cpsie i" : : : "memory");
 199:Drivers/CMSIS/Include/cmsis_gcc.h **** }
 200:Drivers/CMSIS/Include/cmsis_gcc.h **** 
 201:Drivers/CMSIS/Include/cmsis_gcc.h **** 
 202:Drivers/CMSIS/Include/cmsis_gcc.h **** /**
 203:Drivers/CMSIS/Include/cmsis_gcc.h ****   \brief   Disable IRQ Interrupts
 204:Drivers/CMSIS/Include/cmsis_gcc.h ****   \details Disables IRQ interrupts by setting the I-bit in the CPSR.
 205:Drivers/CMSIS/Include/cmsis_gcc.h ****            Can only be executed in Privileged modes.
 206:Drivers/CMSIS/Include/cmsis_gcc.h ****  */
 207:Drivers/CMSIS/Include/cmsis_gcc.h **** __STATIC_FORCEINLINE void __disable_irq(void)
 461              		.loc 2 207 27 view .LVU130
 462              	.LBB12:
 208:Drivers/CMSIS/Include/cmsis_gcc.h **** {
 209:Drivers/CMSIS/Include/cmsis_gcc.h ****   __ASM volatile ("cpsid i" : : : "memory");
 463              		.loc 2 209 3 view .LVU131
 464              		.syntax unified
 465              	@ 209 "Drivers/CMSIS/Include/cmsis_gcc.h" 1
 466 0000 72B6     		cpsid i
 467              	@ 0 "" 2
 468              		.thumb
 469              		.syntax unified
 470              	.L22:
 471              	.LBE12:
 472              	.LBE11:
 521:Core/Src/main.c ****   while (1)
 473              		.loc 1 521 3 view .LVU132
ARM GAS  C:\Users\Aaron\AppData\Local\Temp\cc8VdFcK.s 			page 22


 522:Core/Src/main.c ****   {
 523:Core/Src/main.c ****   }
 474              		.loc 1 523 3 view .LVU133
 521:Core/Src/main.c ****   while (1)
 475              		.loc 1 521 9 view .LVU134
 476 0002 FEE7     		b	.L22
 477              		.cfi_endproc
 478              	.LFE157:
 480              		.section	.text.MX_ETH_Init,"ax",%progbits
 481              		.align	1
 482              		.syntax unified
 483              		.thumb
 484              		.thumb_func
 486              	MX_ETH_Init:
 487              	.LFB150:
 255:Core/Src/main.c **** 
 488              		.loc 1 255 1 view -0
 489              		.cfi_startproc
 490              		@ args = 0, pretend = 0, frame = 0
 491              		@ frame_needed = 0, uses_anonymous_args = 0
 492 0000 10B5     		push	{r4, lr}
 493              		.cfi_def_cfa_offset 8
 494              		.cfi_offset 4, -8
 495              		.cfi_offset 14, -4
 261:Core/Src/main.c **** 
 496              		.loc 1 261 4 view .LVU136
 266:Core/Src/main.c ****   MACAddr[0] = 0x00;
 497              		.loc 1 266 3 view .LVU137
 266:Core/Src/main.c ****   MACAddr[0] = 0x00;
 498              		.loc 1 266 17 is_stmt 0 view .LVU138
 499 0002 1448     		ldr	r0, .L27
 500 0004 144B     		ldr	r3, .L27+4
 501 0006 0360     		str	r3, [r0]
 267:Core/Src/main.c ****   MACAddr[1] = 0x80;
 502              		.loc 1 267 3 is_stmt 1 view .LVU139
 267:Core/Src/main.c ****   MACAddr[1] = 0x80;
 503              		.loc 1 267 14 is_stmt 0 view .LVU140
 504 0008 144B     		ldr	r3, .L27+8
 505 000a 0022     		movs	r2, #0
 506 000c 1A70     		strb	r2, [r3]
 268:Core/Src/main.c ****   MACAddr[2] = 0xE1;
 507              		.loc 1 268 3 is_stmt 1 view .LVU141
 268:Core/Src/main.c ****   MACAddr[2] = 0xE1;
 508              		.loc 1 268 14 is_stmt 0 view .LVU142
 509 000e 8021     		movs	r1, #128
 510 0010 5970     		strb	r1, [r3, #1]
 269:Core/Src/main.c ****   MACAddr[3] = 0x00;
 511              		.loc 1 269 3 is_stmt 1 view .LVU143
 269:Core/Src/main.c ****   MACAddr[3] = 0x00;
 512              		.loc 1 269 14 is_stmt 0 view .LVU144
 513 0012 E121     		movs	r1, #225
 514 0014 9970     		strb	r1, [r3, #2]
 270:Core/Src/main.c ****   MACAddr[4] = 0x00;
 515              		.loc 1 270 3 is_stmt 1 view .LVU145
 270:Core/Src/main.c ****   MACAddr[4] = 0x00;
 516              		.loc 1 270 14 is_stmt 0 view .LVU146
 517 0016 DA70     		strb	r2, [r3, #3]
ARM GAS  C:\Users\Aaron\AppData\Local\Temp\cc8VdFcK.s 			page 23


 271:Core/Src/main.c ****   MACAddr[5] = 0x00;
 518              		.loc 1 271 3 is_stmt 1 view .LVU147
 271:Core/Src/main.c ****   MACAddr[5] = 0x00;
 519              		.loc 1 271 14 is_stmt 0 view .LVU148
 520 0018 1A71     		strb	r2, [r3, #4]
 272:Core/Src/main.c ****   heth.Init.MACAddr = &MACAddr[0];
 521              		.loc 1 272 3 is_stmt 1 view .LVU149
 272:Core/Src/main.c ****   heth.Init.MACAddr = &MACAddr[0];
 522              		.loc 1 272 14 is_stmt 0 view .LVU150
 523 001a 5A71     		strb	r2, [r3, #5]
 273:Core/Src/main.c ****   heth.Init.MediaInterface = HAL_ETH_RMII_MODE;
 524              		.loc 1 273 3 is_stmt 1 view .LVU151
 273:Core/Src/main.c ****   heth.Init.MediaInterface = HAL_ETH_RMII_MODE;
 525              		.loc 1 273 21 is_stmt 0 view .LVU152
 526 001c 4360     		str	r3, [r0, #4]
 274:Core/Src/main.c ****   heth.Init.TxDesc = DMATxDscrTab;
 527              		.loc 1 274 3 is_stmt 1 view .LVU153
 274:Core/Src/main.c ****   heth.Init.TxDesc = DMATxDscrTab;
 528              		.loc 1 274 28 is_stmt 0 view .LVU154
 529 001e 0123     		movs	r3, #1
 530 0020 0372     		strb	r3, [r0, #8]
 275:Core/Src/main.c ****   heth.Init.RxDesc = DMARxDscrTab;
 531              		.loc 1 275 3 is_stmt 1 view .LVU155
 275:Core/Src/main.c ****   heth.Init.RxDesc = DMARxDscrTab;
 532              		.loc 1 275 20 is_stmt 0 view .LVU156
 533 0022 0F4B     		ldr	r3, .L27+12
 534 0024 C360     		str	r3, [r0, #12]
 276:Core/Src/main.c ****   heth.Init.RxBuffLen = 1524;
 535              		.loc 1 276 3 is_stmt 1 view .LVU157
 276:Core/Src/main.c ****   heth.Init.RxBuffLen = 1524;
 536              		.loc 1 276 20 is_stmt 0 view .LVU158
 537 0026 0F4B     		ldr	r3, .L27+16
 538 0028 0361     		str	r3, [r0, #16]
 277:Core/Src/main.c **** 
 539              		.loc 1 277 3 is_stmt 1 view .LVU159
 277:Core/Src/main.c **** 
 540              		.loc 1 277 23 is_stmt 0 view .LVU160
 541 002a 40F2F453 		movw	r3, #1524
 542 002e 4361     		str	r3, [r0, #20]
 283:Core/Src/main.c ****   {
 543              		.loc 1 283 3 is_stmt 1 view .LVU161
 283:Core/Src/main.c ****   {
 544              		.loc 1 283 7 is_stmt 0 view .LVU162
 545 0030 FFF7FEFF 		bl	HAL_ETH_Init
 546              	.LVL22:
 283:Core/Src/main.c ****   {
 547              		.loc 1 283 6 discriminator 1 view .LVU163
 548 0034 58B9     		cbnz	r0, .L26
 288:Core/Src/main.c ****   TxConfig.Attributes = ETH_TX_PACKETS_FEATURES_CSUM | ETH_TX_PACKETS_FEATURES_CRCPAD;
 549              		.loc 1 288 3 is_stmt 1 view .LVU164
 550 0036 0C4C     		ldr	r4, .L27+20
 551 0038 3822     		movs	r2, #56
 552 003a 0021     		movs	r1, #0
 553 003c 2046     		mov	r0, r4
 554 003e FFF7FEFF 		bl	memset
 555              	.LVL23:
 289:Core/Src/main.c ****   TxConfig.ChecksumCtrl = ETH_CHECKSUM_IPHDR_PAYLOAD_INSERT_PHDR_CALC;
ARM GAS  C:\Users\Aaron\AppData\Local\Temp\cc8VdFcK.s 			page 24


 556              		.loc 1 289 3 view .LVU165
 289:Core/Src/main.c ****   TxConfig.ChecksumCtrl = ETH_CHECKSUM_IPHDR_PAYLOAD_INSERT_PHDR_CALC;
 557              		.loc 1 289 23 is_stmt 0 view .LVU166
 558 0042 2123     		movs	r3, #33
 559 0044 2360     		str	r3, [r4]
 290:Core/Src/main.c ****   TxConfig.CRCPadCtrl = ETH_CRC_PAD_INSERT;
 560              		.loc 1 290 3 is_stmt 1 view .LVU167
 290:Core/Src/main.c ****   TxConfig.CRCPadCtrl = ETH_CRC_PAD_INSERT;
 561              		.loc 1 290 25 is_stmt 0 view .LVU168
 562 0046 4FF44033 		mov	r3, #196608
 563 004a 6361     		str	r3, [r4, #20]
 291:Core/Src/main.c ****   /* USER CODE BEGIN ETH_Init 2 */
 564              		.loc 1 291 3 is_stmt 1 view .LVU169
 296:Core/Src/main.c **** 
 565              		.loc 1 296 1 is_stmt 0 view .LVU170
 566 004c 10BD     		pop	{r4, pc}
 567              	.L26:
 285:Core/Src/main.c ****   }
 568              		.loc 1 285 5 is_stmt 1 view .LVU171
 569 004e FFF7FEFF 		bl	Error_Handler
 570              	.LVL24:
 571              	.L28:
 572 0052 00BF     		.align	2
 573              	.L27:
 574 0054 00000000 		.word	heth
 575 0058 00800240 		.word	1073905664
 576 005c 00000000 		.word	MACAddr.0
 577 0060 00000000 		.word	DMATxDscrTab
 578 0064 00000000 		.word	DMARxDscrTab
 579 0068 00000000 		.word	TxConfig
 580              		.cfi_endproc
 581              	.LFE150:
 583              		.section	.text.MX_USART3_UART_Init,"ax",%progbits
 584              		.align	1
 585              		.syntax unified
 586              		.thumb
 587              		.thumb_func
 589              	MX_USART3_UART_Init:
 590              	.LFB151:
 304:Core/Src/main.c **** 
 591              		.loc 1 304 1 view -0
 592              		.cfi_startproc
 593              		@ args = 0, pretend = 0, frame = 0
 594              		@ frame_needed = 0, uses_anonymous_args = 0
 595 0000 08B5     		push	{r3, lr}
 596              		.cfi_def_cfa_offset 8
 597              		.cfi_offset 3, -8
 598              		.cfi_offset 14, -4
 313:Core/Src/main.c ****   huart3.Init.BaudRate = 115200;
 599              		.loc 1 313 3 view .LVU173
 313:Core/Src/main.c ****   huart3.Init.BaudRate = 115200;
 600              		.loc 1 313 19 is_stmt 0 view .LVU174
 601 0002 1548     		ldr	r0, .L39
 602 0004 154B     		ldr	r3, .L39+4
 603 0006 0360     		str	r3, [r0]
 314:Core/Src/main.c ****   huart3.Init.WordLength = UART_WORDLENGTH_8B;
 604              		.loc 1 314 3 is_stmt 1 view .LVU175
ARM GAS  C:\Users\Aaron\AppData\Local\Temp\cc8VdFcK.s 			page 25


 314:Core/Src/main.c ****   huart3.Init.WordLength = UART_WORDLENGTH_8B;
 605              		.loc 1 314 24 is_stmt 0 view .LVU176
 606 0008 4FF4E133 		mov	r3, #115200
 607 000c 4360     		str	r3, [r0, #4]
 315:Core/Src/main.c ****   huart3.Init.StopBits = UART_STOPBITS_1;
 608              		.loc 1 315 3 is_stmt 1 view .LVU177
 315:Core/Src/main.c ****   huart3.Init.StopBits = UART_STOPBITS_1;
 609              		.loc 1 315 26 is_stmt 0 view .LVU178
 610 000e 0023     		movs	r3, #0
 611 0010 8360     		str	r3, [r0, #8]
 316:Core/Src/main.c ****   huart3.Init.Parity = UART_PARITY_NONE;
 612              		.loc 1 316 3 is_stmt 1 view .LVU179
 316:Core/Src/main.c ****   huart3.Init.Parity = UART_PARITY_NONE;
 613              		.loc 1 316 24 is_stmt 0 view .LVU180
 614 0012 C360     		str	r3, [r0, #12]
 317:Core/Src/main.c ****   huart3.Init.Mode = UART_MODE_TX_RX;
 615              		.loc 1 317 3 is_stmt 1 view .LVU181
 317:Core/Src/main.c ****   huart3.Init.Mode = UART_MODE_TX_RX;
 616              		.loc 1 317 22 is_stmt 0 view .LVU182
 617 0014 0361     		str	r3, [r0, #16]
 318:Core/Src/main.c ****   huart3.Init.HwFlowCtl = UART_HWCONTROL_NONE;
 618              		.loc 1 318 3 is_stmt 1 view .LVU183
 318:Core/Src/main.c ****   huart3.Init.HwFlowCtl = UART_HWCONTROL_NONE;
 619              		.loc 1 318 20 is_stmt 0 view .LVU184
 620 0016 0C22     		movs	r2, #12
 621 0018 4261     		str	r2, [r0, #20]
 319:Core/Src/main.c ****   huart3.Init.OverSampling = UART_OVERSAMPLING_16;
 622              		.loc 1 319 3 is_stmt 1 view .LVU185
 319:Core/Src/main.c ****   huart3.Init.OverSampling = UART_OVERSAMPLING_16;
 623              		.loc 1 319 25 is_stmt 0 view .LVU186
 624 001a 8361     		str	r3, [r0, #24]
 320:Core/Src/main.c ****   huart3.Init.OneBitSampling = UART_ONE_BIT_SAMPLE_DISABLE;
 625              		.loc 1 320 3 is_stmt 1 view .LVU187
 320:Core/Src/main.c ****   huart3.Init.OneBitSampling = UART_ONE_BIT_SAMPLE_DISABLE;
 626              		.loc 1 320 28 is_stmt 0 view .LVU188
 627 001c C361     		str	r3, [r0, #28]
 321:Core/Src/main.c ****   huart3.Init.ClockPrescaler = UART_PRESCALER_DIV1;
 628              		.loc 1 321 3 is_stmt 1 view .LVU189
 321:Core/Src/main.c ****   huart3.Init.ClockPrescaler = UART_PRESCALER_DIV1;
 629              		.loc 1 321 30 is_stmt 0 view .LVU190
 630 001e 0362     		str	r3, [r0, #32]
 322:Core/Src/main.c ****   huart3.AdvancedInit.AdvFeatureInit = UART_ADVFEATURE_NO_INIT;
 631              		.loc 1 322 3 is_stmt 1 view .LVU191
 322:Core/Src/main.c ****   huart3.AdvancedInit.AdvFeatureInit = UART_ADVFEATURE_NO_INIT;
 632              		.loc 1 322 30 is_stmt 0 view .LVU192
 633 0020 4362     		str	r3, [r0, #36]
 323:Core/Src/main.c ****   if (HAL_UART_Init(&huart3) != HAL_OK)
 634              		.loc 1 323 3 is_stmt 1 view .LVU193
 323:Core/Src/main.c ****   if (HAL_UART_Init(&huart3) != HAL_OK)
 635              		.loc 1 323 38 is_stmt 0 view .LVU194
 636 0022 8362     		str	r3, [r0, #40]
 324:Core/Src/main.c ****   {
 637              		.loc 1 324 3 is_stmt 1 view .LVU195
 324:Core/Src/main.c ****   {
 638              		.loc 1 324 7 is_stmt 0 view .LVU196
 639 0024 FFF7FEFF 		bl	HAL_UART_Init
 640              	.LVL25:
ARM GAS  C:\Users\Aaron\AppData\Local\Temp\cc8VdFcK.s 			page 26


 324:Core/Src/main.c ****   {
 641              		.loc 1 324 6 discriminator 1 view .LVU197
 642 0028 70B9     		cbnz	r0, .L35
 328:Core/Src/main.c ****   {
 643              		.loc 1 328 3 is_stmt 1 view .LVU198
 328:Core/Src/main.c ****   {
 644              		.loc 1 328 7 is_stmt 0 view .LVU199
 645 002a 0021     		movs	r1, #0
 646 002c 0A48     		ldr	r0, .L39
 647 002e FFF7FEFF 		bl	HAL_UARTEx_SetTxFifoThreshold
 648              	.LVL26:
 328:Core/Src/main.c ****   {
 649              		.loc 1 328 6 discriminator 1 view .LVU200
 650 0032 58B9     		cbnz	r0, .L36
 332:Core/Src/main.c ****   {
 651              		.loc 1 332 3 is_stmt 1 view .LVU201
 332:Core/Src/main.c ****   {
 652              		.loc 1 332 7 is_stmt 0 view .LVU202
 653 0034 0021     		movs	r1, #0
 654 0036 0848     		ldr	r0, .L39
 655 0038 FFF7FEFF 		bl	HAL_UARTEx_SetRxFifoThreshold
 656              	.LVL27:
 332:Core/Src/main.c ****   {
 657              		.loc 1 332 6 discriminator 1 view .LVU203
 658 003c 40B9     		cbnz	r0, .L37
 336:Core/Src/main.c ****   {
 659              		.loc 1 336 3 is_stmt 1 view .LVU204
 336:Core/Src/main.c ****   {
 660              		.loc 1 336 7 is_stmt 0 view .LVU205
 661 003e 0648     		ldr	r0, .L39
 662 0040 FFF7FEFF 		bl	HAL_UARTEx_DisableFifoMode
 663              	.LVL28:
 336:Core/Src/main.c ****   {
 664              		.loc 1 336 6 discriminator 1 view .LVU206
 665 0044 30B9     		cbnz	r0, .L38
 344:Core/Src/main.c **** 
 666              		.loc 1 344 1 view .LVU207
 667 0046 08BD     		pop	{r3, pc}
 668              	.L35:
 326:Core/Src/main.c ****   }
 669              		.loc 1 326 5 is_stmt 1 view .LVU208
 670 0048 FFF7FEFF 		bl	Error_Handler
 671              	.LVL29:
 672              	.L36:
 330:Core/Src/main.c ****   }
 673              		.loc 1 330 5 view .LVU209
 674 004c FFF7FEFF 		bl	Error_Handler
 675              	.LVL30:
 676              	.L37:
 334:Core/Src/main.c ****   }
 677              		.loc 1 334 5 view .LVU210
 678 0050 FFF7FEFF 		bl	Error_Handler
 679              	.LVL31:
 680              	.L38:
 338:Core/Src/main.c ****   }
 681              		.loc 1 338 5 view .LVU211
 682 0054 FFF7FEFF 		bl	Error_Handler
ARM GAS  C:\Users\Aaron\AppData\Local\Temp\cc8VdFcK.s 			page 27


 683              	.LVL32:
 684              	.L40:
 685              		.align	2
 686              	.L39:
 687 0058 00000000 		.word	huart3
 688 005c 00480040 		.word	1073760256
 689              		.cfi_endproc
 690              	.LFE151:
 692              		.section	.text.SystemClock_Config,"ax",%progbits
 693              		.align	1
 694              		.global	SystemClock_Config
 695              		.syntax unified
 696              		.thumb
 697              		.thumb_func
 699              	SystemClock_Config:
 700              	.LFB149:
 195:Core/Src/main.c ****   RCC_OscInitTypeDef RCC_OscInitStruct = {0};
 701              		.loc 1 195 1 view -0
 702              		.cfi_startproc
 703              		@ args = 0, pretend = 0, frame = 112
 704              		@ frame_needed = 0, uses_anonymous_args = 0
 705 0000 00B5     		push	{lr}
 706              		.cfi_def_cfa_offset 4
 707              		.cfi_offset 14, -4
 708 0002 9DB0     		sub	sp, sp, #116
 709              		.cfi_def_cfa_offset 120
 196:Core/Src/main.c ****   RCC_ClkInitTypeDef RCC_ClkInitStruct = {0};
 710              		.loc 1 196 3 view .LVU213
 196:Core/Src/main.c ****   RCC_ClkInitTypeDef RCC_ClkInitStruct = {0};
 711              		.loc 1 196 22 is_stmt 0 view .LVU214
 712 0004 4C22     		movs	r2, #76
 713 0006 0021     		movs	r1, #0
 714 0008 09A8     		add	r0, sp, #36
 715 000a FFF7FEFF 		bl	memset
 716              	.LVL33:
 197:Core/Src/main.c **** 
 717              		.loc 1 197 3 is_stmt 1 view .LVU215
 197:Core/Src/main.c **** 
 718              		.loc 1 197 22 is_stmt 0 view .LVU216
 719 000e 2022     		movs	r2, #32
 720 0010 0021     		movs	r1, #0
 721 0012 01A8     		add	r0, sp, #4
 722 0014 FFF7FEFF 		bl	memset
 723              	.LVL34:
 201:Core/Src/main.c **** 
 724              		.loc 1 201 3 is_stmt 1 view .LVU217
 725 0018 0220     		movs	r0, #2
 726 001a FFF7FEFF 		bl	HAL_PWREx_ConfigSupply
 727              	.LVL35:
 205:Core/Src/main.c **** 
 728              		.loc 1 205 3 view .LVU218
 729              	.LBB13:
 205:Core/Src/main.c **** 
 730              		.loc 1 205 3 view .LVU219
 731 001e 0023     		movs	r3, #0
 732 0020 0093     		str	r3, [sp]
 205:Core/Src/main.c **** 
ARM GAS  C:\Users\Aaron\AppData\Local\Temp\cc8VdFcK.s 			page 28


 733              		.loc 1 205 3 view .LVU220
 734 0022 214B     		ldr	r3, .L48
 735 0024 9A69     		ldr	r2, [r3, #24]
 736 0026 22F44042 		bic	r2, r2, #49152
 737 002a 9A61     		str	r2, [r3, #24]
 205:Core/Src/main.c **** 
 738              		.loc 1 205 3 view .LVU221
 739 002c 9B69     		ldr	r3, [r3, #24]
 740 002e 03F44043 		and	r3, r3, #49152
 741 0032 0093     		str	r3, [sp]
 205:Core/Src/main.c **** 
 742              		.loc 1 205 3 view .LVU222
 743 0034 009B     		ldr	r3, [sp]
 744              	.LBE13:
 205:Core/Src/main.c **** 
 745              		.loc 1 205 3 view .LVU223
 207:Core/Src/main.c **** 
 746              		.loc 1 207 3 view .LVU224
 747              	.L42:
 207:Core/Src/main.c **** 
 748              		.loc 1 207 48 discriminator 1 view .LVU225
 207:Core/Src/main.c **** 
 749              		.loc 1 207 9 discriminator 1 view .LVU226
 207:Core/Src/main.c **** 
 750              		.loc 1 207 10 is_stmt 0 discriminator 1 view .LVU227
 751 0036 1C4B     		ldr	r3, .L48
 752 0038 9B69     		ldr	r3, [r3, #24]
 207:Core/Src/main.c **** 
 753              		.loc 1 207 9 discriminator 1 view .LVU228
 754 003a 13F4005F 		tst	r3, #8192
 755 003e FAD0     		beq	.L42
 212:Core/Src/main.c ****   RCC_OscInitStruct.HSEState = RCC_HSE_BYPASS;
 756              		.loc 1 212 3 is_stmt 1 view .LVU229
 212:Core/Src/main.c ****   RCC_OscInitStruct.HSEState = RCC_HSE_BYPASS;
 757              		.loc 1 212 36 is_stmt 0 view .LVU230
 758 0040 2123     		movs	r3, #33
 759 0042 0993     		str	r3, [sp, #36]
 213:Core/Src/main.c ****   RCC_OscInitStruct.HSI48State = RCC_HSI48_ON;
 760              		.loc 1 213 3 is_stmt 1 view .LVU231
 213:Core/Src/main.c ****   RCC_OscInitStruct.HSI48State = RCC_HSI48_ON;
 761              		.loc 1 213 30 is_stmt 0 view .LVU232
 762 0044 4FF4A023 		mov	r3, #327680
 763 0048 0A93     		str	r3, [sp, #40]
 214:Core/Src/main.c ****   RCC_OscInitStruct.PLL.PLLState = RCC_PLL_ON;
 764              		.loc 1 214 3 is_stmt 1 view .LVU233
 214:Core/Src/main.c ****   RCC_OscInitStruct.PLL.PLLState = RCC_PLL_ON;
 765              		.loc 1 214 32 is_stmt 0 view .LVU234
 766 004a 0121     		movs	r1, #1
 767 004c 0F91     		str	r1, [sp, #60]
 215:Core/Src/main.c ****   RCC_OscInitStruct.PLL.PLLSource = RCC_PLLSOURCE_HSE;
 768              		.loc 1 215 3 is_stmt 1 view .LVU235
 215:Core/Src/main.c ****   RCC_OscInitStruct.PLL.PLLSource = RCC_PLLSOURCE_HSE;
 769              		.loc 1 215 34 is_stmt 0 view .LVU236
 770 004e 0222     		movs	r2, #2
 771 0050 1292     		str	r2, [sp, #72]
 216:Core/Src/main.c ****   RCC_OscInitStruct.PLL.PLLM = 4;
 772              		.loc 1 216 3 is_stmt 1 view .LVU237
ARM GAS  C:\Users\Aaron\AppData\Local\Temp\cc8VdFcK.s 			page 29


 216:Core/Src/main.c ****   RCC_OscInitStruct.PLL.PLLM = 4;
 773              		.loc 1 216 35 is_stmt 0 view .LVU238
 774 0052 1392     		str	r2, [sp, #76]
 217:Core/Src/main.c ****   RCC_OscInitStruct.PLL.PLLN = 275;
 775              		.loc 1 217 3 is_stmt 1 view .LVU239
 217:Core/Src/main.c ****   RCC_OscInitStruct.PLL.PLLN = 275;
 776              		.loc 1 217 30 is_stmt 0 view .LVU240
 777 0054 0423     		movs	r3, #4
 778 0056 1493     		str	r3, [sp, #80]
 218:Core/Src/main.c ****   RCC_OscInitStruct.PLL.PLLP = 1;
 779              		.loc 1 218 3 is_stmt 1 view .LVU241
 218:Core/Src/main.c ****   RCC_OscInitStruct.PLL.PLLP = 1;
 780              		.loc 1 218 30 is_stmt 0 view .LVU242
 781 0058 40F21310 		movw	r0, #275
 782 005c 1590     		str	r0, [sp, #84]
 219:Core/Src/main.c ****   RCC_OscInitStruct.PLL.PLLQ = 4;
 783              		.loc 1 219 3 is_stmt 1 view .LVU243
 219:Core/Src/main.c ****   RCC_OscInitStruct.PLL.PLLQ = 4;
 784              		.loc 1 219 30 is_stmt 0 view .LVU244
 785 005e 1691     		str	r1, [sp, #88]
 220:Core/Src/main.c ****   RCC_OscInitStruct.PLL.PLLR = 2;
 786              		.loc 1 220 3 is_stmt 1 view .LVU245
 220:Core/Src/main.c ****   RCC_OscInitStruct.PLL.PLLR = 2;
 787              		.loc 1 220 30 is_stmt 0 view .LVU246
 788 0060 1793     		str	r3, [sp, #92]
 221:Core/Src/main.c ****   RCC_OscInitStruct.PLL.PLLRGE = RCC_PLL1VCIRANGE_1;
 789              		.loc 1 221 3 is_stmt 1 view .LVU247
 221:Core/Src/main.c ****   RCC_OscInitStruct.PLL.PLLRGE = RCC_PLL1VCIRANGE_1;
 790              		.loc 1 221 30 is_stmt 0 view .LVU248
 791 0062 1892     		str	r2, [sp, #96]
 222:Core/Src/main.c ****   RCC_OscInitStruct.PLL.PLLVCOSEL = RCC_PLL1VCOWIDE;
 792              		.loc 1 222 3 is_stmt 1 view .LVU249
 222:Core/Src/main.c ****   RCC_OscInitStruct.PLL.PLLVCOSEL = RCC_PLL1VCOWIDE;
 793              		.loc 1 222 32 is_stmt 0 view .LVU250
 794 0064 1993     		str	r3, [sp, #100]
 223:Core/Src/main.c ****   RCC_OscInitStruct.PLL.PLLFRACN = 0;
 795              		.loc 1 223 3 is_stmt 1 view .LVU251
 223:Core/Src/main.c ****   RCC_OscInitStruct.PLL.PLLFRACN = 0;
 796              		.loc 1 223 35 is_stmt 0 view .LVU252
 797 0066 0023     		movs	r3, #0
 798 0068 1A93     		str	r3, [sp, #104]
 224:Core/Src/main.c ****   if (HAL_RCC_OscConfig(&RCC_OscInitStruct) != HAL_OK)
 799              		.loc 1 224 3 is_stmt 1 view .LVU253
 224:Core/Src/main.c ****   if (HAL_RCC_OscConfig(&RCC_OscInitStruct) != HAL_OK)
 800              		.loc 1 224 34 is_stmt 0 view .LVU254
 801 006a 1B93     		str	r3, [sp, #108]
 225:Core/Src/main.c ****   {
 802              		.loc 1 225 3 is_stmt 1 view .LVU255
 225:Core/Src/main.c ****   {
 803              		.loc 1 225 7 is_stmt 0 view .LVU256
 804 006c 09A8     		add	r0, sp, #36
 805 006e FFF7FEFF 		bl	HAL_RCC_OscConfig
 806              	.LVL36:
 225:Core/Src/main.c ****   {
 807              		.loc 1 225 6 discriminator 1 view .LVU257
 808 0072 A8B9     		cbnz	r0, .L46
 232:Core/Src/main.c ****                               |RCC_CLOCKTYPE_PCLK1|RCC_CLOCKTYPE_PCLK2
ARM GAS  C:\Users\Aaron\AppData\Local\Temp\cc8VdFcK.s 			page 30


 809              		.loc 1 232 3 is_stmt 1 view .LVU258
 232:Core/Src/main.c ****                               |RCC_CLOCKTYPE_PCLK1|RCC_CLOCKTYPE_PCLK2
 810              		.loc 1 232 31 is_stmt 0 view .LVU259
 811 0074 3F23     		movs	r3, #63
 812 0076 0193     		str	r3, [sp, #4]
 235:Core/Src/main.c ****   RCC_ClkInitStruct.SYSCLKDivider = RCC_SYSCLK_DIV1;
 813              		.loc 1 235 3 is_stmt 1 view .LVU260
 235:Core/Src/main.c ****   RCC_ClkInitStruct.SYSCLKDivider = RCC_SYSCLK_DIV1;
 814              		.loc 1 235 34 is_stmt 0 view .LVU261
 815 0078 0321     		movs	r1, #3
 816 007a 0291     		str	r1, [sp, #8]
 236:Core/Src/main.c ****   RCC_ClkInitStruct.AHBCLKDivider = RCC_HCLK_DIV2;
 817              		.loc 1 236 3 is_stmt 1 view .LVU262
 236:Core/Src/main.c ****   RCC_ClkInitStruct.AHBCLKDivider = RCC_HCLK_DIV2;
 818              		.loc 1 236 35 is_stmt 0 view .LVU263
 819 007c 0023     		movs	r3, #0
 820 007e 0393     		str	r3, [sp, #12]
 237:Core/Src/main.c ****   RCC_ClkInitStruct.APB3CLKDivider = RCC_APB3_DIV2;
 821              		.loc 1 237 3 is_stmt 1 view .LVU264
 237:Core/Src/main.c ****   RCC_ClkInitStruct.APB3CLKDivider = RCC_APB3_DIV2;
 822              		.loc 1 237 35 is_stmt 0 view .LVU265
 823 0080 0823     		movs	r3, #8
 824 0082 0493     		str	r3, [sp, #16]
 238:Core/Src/main.c ****   RCC_ClkInitStruct.APB1CLKDivider = RCC_APB1_DIV2;
 825              		.loc 1 238 3 is_stmt 1 view .LVU266
 238:Core/Src/main.c ****   RCC_ClkInitStruct.APB1CLKDivider = RCC_APB1_DIV2;
 826              		.loc 1 238 36 is_stmt 0 view .LVU267
 827 0084 4023     		movs	r3, #64
 828 0086 0593     		str	r3, [sp, #20]
 239:Core/Src/main.c ****   RCC_ClkInitStruct.APB2CLKDivider = RCC_APB2_DIV2;
 829              		.loc 1 239 3 is_stmt 1 view .LVU268
 239:Core/Src/main.c ****   RCC_ClkInitStruct.APB2CLKDivider = RCC_APB2_DIV2;
 830              		.loc 1 239 36 is_stmt 0 view .LVU269
 831 0088 0693     		str	r3, [sp, #24]
 240:Core/Src/main.c ****   RCC_ClkInitStruct.APB4CLKDivider = RCC_APB4_DIV2;
 832              		.loc 1 240 3 is_stmt 1 view .LVU270
 240:Core/Src/main.c ****   RCC_ClkInitStruct.APB4CLKDivider = RCC_APB4_DIV2;
 833              		.loc 1 240 36 is_stmt 0 view .LVU271
 834 008a 4FF48062 		mov	r2, #1024
 835 008e 0792     		str	r2, [sp, #28]
 241:Core/Src/main.c **** 
 836              		.loc 1 241 3 is_stmt 1 view .LVU272
 241:Core/Src/main.c **** 
 837              		.loc 1 241 36 is_stmt 0 view .LVU273
 838 0090 0893     		str	r3, [sp, #32]
 243:Core/Src/main.c ****   {
 839              		.loc 1 243 3 is_stmt 1 view .LVU274
 243:Core/Src/main.c ****   {
 840              		.loc 1 243 7 is_stmt 0 view .LVU275
 841 0092 01A8     		add	r0, sp, #4
 842 0094 FFF7FEFF 		bl	HAL_RCC_ClockConfig
 843              	.LVL37:
 243:Core/Src/main.c ****   {
 844              		.loc 1 243 6 discriminator 1 view .LVU276
 845 0098 20B9     		cbnz	r0, .L47
 247:Core/Src/main.c **** 
 846              		.loc 1 247 1 view .LVU277
ARM GAS  C:\Users\Aaron\AppData\Local\Temp\cc8VdFcK.s 			page 31


 847 009a 1DB0     		add	sp, sp, #116
 848              		.cfi_remember_state
 849              		.cfi_def_cfa_offset 4
 850              		@ sp needed
 851 009c 5DF804FB 		ldr	pc, [sp], #4
 852              	.L46:
 853              		.cfi_restore_state
 227:Core/Src/main.c ****   }
 854              		.loc 1 227 5 is_stmt 1 view .LVU278
 855 00a0 FFF7FEFF 		bl	Error_Handler
 856              	.LVL38:
 857              	.L47:
 245:Core/Src/main.c ****   }
 858              		.loc 1 245 5 view .LVU279
 859 00a4 FFF7FEFF 		bl	Error_Handler
 860              	.LVL39:
 861              	.L49:
 862              		.align	2
 863              	.L48:
 864 00a8 00480258 		.word	1476544512
 865              		.cfi_endproc
 866              	.LFE149:
 868              		.section	.text.main,"ax",%progbits
 869              		.align	1
 870              		.global	main
 871              		.syntax unified
 872              		.thumb
 873              		.thumb_func
 875              	main:
 876              	.LFB148:
 109:Core/Src/main.c **** 
 877              		.loc 1 109 1 view -0
 878              		.cfi_startproc
 879              		@ Volatile: function does not return.
 880              		@ args = 0, pretend = 0, frame = 0
 881              		@ frame_needed = 0, uses_anonymous_args = 0
 882 0000 08B5     		push	{r3, lr}
 883              		.cfi_def_cfa_offset 8
 884              		.cfi_offset 3, -8
 885              		.cfi_offset 14, -4
 118:Core/Src/main.c **** 
 886              		.loc 1 118 3 view .LVU281
 887 0002 FFF7FEFF 		bl	HAL_Init
 888              	.LVL40:
 125:Core/Src/main.c **** 
 889              		.loc 1 125 3 view .LVU282
 890 0006 FFF7FEFF 		bl	SystemClock_Config
 891              	.LVL41:
 132:Core/Src/main.c ****   MX_ETH_Init();
 892              		.loc 1 132 3 view .LVU283
 893 000a FFF7FEFF 		bl	MX_GPIO_Init
 894              	.LVL42:
 133:Core/Src/main.c ****   MX_USART3_UART_Init();
 895              		.loc 1 133 3 view .LVU284
 896 000e FFF7FEFF 		bl	MX_ETH_Init
 897              	.LVL43:
 134:Core/Src/main.c ****   MX_USB_OTG_HS_USB_Init();
ARM GAS  C:\Users\Aaron\AppData\Local\Temp\cc8VdFcK.s 			page 32


 898              		.loc 1 134 3 view .LVU285
 899 0012 FFF7FEFF 		bl	MX_USART3_UART_Init
 900              	.LVL44:
 135:Core/Src/main.c ****   /* USER CODE BEGIN 2 */
 901              		.loc 1 135 3 view .LVU286
 141:Core/Src/main.c **** 
 902              		.loc 1 141 3 view .LVU287
 903 0016 FFF7FEFF 		bl	osKernelInitialize
 904              	.LVL45:
 161:Core/Src/main.c **** 
 905              		.loc 1 161 3 view .LVU288
 161:Core/Src/main.c **** 
 906              		.loc 1 161 22 is_stmt 0 view .LVU289
 907 001a 084A     		ldr	r2, .L53
 908 001c 0021     		movs	r1, #0
 909 001e 0848     		ldr	r0, .L53+4
 910 0020 FFF7FEFF 		bl	osThreadNew
 911              	.LVL46:
 161:Core/Src/main.c **** 
 912              		.loc 1 161 20 discriminator 1 view .LVU290
 913 0024 074B     		ldr	r3, .L53+8
 914 0026 1860     		str	r0, [r3]
 164:Core/Src/main.c **** 
 915              		.loc 1 164 3 is_stmt 1 view .LVU291
 164:Core/Src/main.c **** 
 916              		.loc 1 164 20 is_stmt 0 view .LVU292
 917 0028 074A     		ldr	r2, .L53+12
 918 002a 0021     		movs	r1, #0
 919 002c 0748     		ldr	r0, .L53+16
 920 002e FFF7FEFF 		bl	osThreadNew
 921              	.LVL47:
 164:Core/Src/main.c **** 
 922              		.loc 1 164 18 discriminator 1 view .LVU293
 923 0032 074B     		ldr	r3, .L53+20
 924 0034 1860     		str	r0, [r3]
 175:Core/Src/main.c **** 
 925              		.loc 1 175 3 is_stmt 1 view .LVU294
 926 0036 FFF7FEFF 		bl	osKernelStart
 927              	.LVL48:
 928              	.L51:
 181:Core/Src/main.c ****   {
 929              		.loc 1 181 3 view .LVU295
 186:Core/Src/main.c ****   /* USER CODE END 3 */
 930              		.loc 1 186 3 view .LVU296
 181:Core/Src/main.c ****   {
 931              		.loc 1 181 9 view .LVU297
 932 003a FEE7     		b	.L51
 933              	.L54:
 934              		.align	2
 935              	.L53:
 936 003c 00000000 		.word	blinkGreen_attributes
 937 0040 00000000 		.word	StartBlinkGreen
 938 0044 00000000 		.word	blinkGreenHandle
 939 0048 00000000 		.word	blinkRed_attributes
 940 004c 00000000 		.word	StartBlinkRed
 941 0050 00000000 		.word	blinkRedHandle
 942              		.cfi_endproc
ARM GAS  C:\Users\Aaron\AppData\Local\Temp\cc8VdFcK.s 			page 33


 943              	.LFE148:
 945              		.section	.bss.MACAddr.0,"aw",%nobits
 946              		.align	2
 949              	MACAddr.0:
 950 0000 00000000 		.space	6
 950      0000
 951              		.global	blinkRed_attributes
 952              		.section	.rodata.str1.4,"aMS",%progbits,1
 953              		.align	2
 954              	.LC0:
 955 0000 626C696E 		.ascii	"blinkRed\000"
 955      6B526564 
 955      00
 956              		.section	.rodata.blinkRed_attributes,"a"
 957              		.align	2
 960              	blinkRed_attributes:
 961 0000 00000000 		.word	.LC0
 962 0004 00000000 		.space	16
 962      00000000 
 962      00000000 
 962      00000000 
 963 0014 00020000 		.word	512
 964 0018 08000000 		.word	8
 965 001c 00000000 		.space	8
 965      00000000 
 966              		.global	blinkRedHandle
 967              		.section	.bss.blinkRedHandle,"aw",%nobits
 968              		.align	2
 971              	blinkRedHandle:
 972 0000 00000000 		.space	4
 973              		.global	blinkGreen_attributes
 974              		.section	.rodata.str1.4
 975 0009 000000   		.align	2
 976              	.LC1:
 977 000c 626C696E 		.ascii	"blinkGreen\000"
 977      6B477265 
 977      656E00
 978              		.section	.rodata.blinkGreen_attributes,"a"
 979              		.align	2
 982              	blinkGreen_attributes:
 983 0000 0C000000 		.word	.LC1
 984 0004 00000000 		.space	16
 984      00000000 
 984      00000000 
 984      00000000 
 985 0014 00020000 		.word	512
 986 0018 18000000 		.word	24
 987 001c 00000000 		.space	8
 987      00000000 
 988              		.global	blinkGreenHandle
 989              		.section	.bss.blinkGreenHandle,"aw",%nobits
 990              		.align	2
 993              	blinkGreenHandle:
 994 0000 00000000 		.space	4
 995              		.global	huart3
 996              		.section	.bss.huart3,"aw",%nobits
 997              		.align	2
ARM GAS  C:\Users\Aaron\AppData\Local\Temp\cc8VdFcK.s 			page 34


 1000              	huart3:
 1001 0000 00000000 		.space	148
 1001      00000000 
 1001      00000000 
 1001      00000000 
 1001      00000000 
 1002              		.global	heth
 1003              		.section	.bss.heth,"aw",%nobits
 1004              		.align	2
 1007              	heth:
 1008 0000 00000000 		.space	176
 1008      00000000 
 1008      00000000 
 1008      00000000 
 1008      00000000 
 1009              		.global	TxConfig
 1010              		.section	.bss.TxConfig,"aw",%nobits
 1011              		.align	2
 1014              	TxConfig:
 1015 0000 00000000 		.space	56
 1015      00000000 
 1015      00000000 
 1015      00000000 
 1015      00000000 
 1016              		.global	DMATxDscrTab
 1017              		.section	.TxDecripSection,"aw"
 1018              		.align	2
 1021              	DMATxDscrTab:
 1022 0000 00000000 		.space	96
 1022      00000000 
 1022      00000000 
 1022      00000000 
 1022      00000000 
 1023              		.global	DMARxDscrTab
 1024              		.section	.RxDecripSection,"aw"
 1025              		.align	2
 1028              	DMARxDscrTab:
 1029 0000 00000000 		.space	96
 1029      00000000 
 1029      00000000 
 1029      00000000 
 1029      00000000 
 1030              		.text
 1031              	.Letext0:
 1032              		.file 3 "C:/Users/Aaron/AppData/Roaming/Code/User/globalStorage/bmd.stm32-for-vscode/@xpack-dev-to
 1033              		.file 4 "C:/Users/Aaron/AppData/Roaming/Code/User/globalStorage/bmd.stm32-for-vscode/@xpack-dev-to
 1034              		.file 5 "Drivers/CMSIS/Device/ST/STM32H7xx/Include/stm32h723xx.h"
 1035              		.file 6 "C:/Users/Aaron/AppData/Roaming/Code/User/globalStorage/bmd.stm32-for-vscode/@xpack-dev-to
 1036              		.file 7 "Drivers/STM32H7xx_HAL_Driver/Inc/stm32h7xx_hal_def.h"
 1037              		.file 8 "Drivers/STM32H7xx_HAL_Driver/Inc/stm32h7xx_hal_rcc.h"
 1038              		.file 9 "Drivers/STM32H7xx_HAL_Driver/Inc/stm32h7xx_hal_gpio.h"
 1039              		.file 10 "Drivers/STM32H7xx_HAL_Driver/Inc/stm32h7xx_hal_dma.h"
 1040              		.file 11 "Drivers/STM32H7xx_HAL_Driver/Inc/stm32h7xx_hal_eth.h"
 1041              		.file 12 "Drivers/STM32H7xx_HAL_Driver/Inc/stm32h7xx_hal_tim.h"
 1042              		.file 13 "Drivers/STM32H7xx_HAL_Driver/Inc/stm32h7xx_hal_uart.h"
 1043              		.file 14 "Middlewares/Third_Party/FreeRTOS/Source/CMSIS_RTOS_V2/cmsis_os2.h"
 1044              		.file 15 "Drivers/STM32H7xx_HAL_Driver/Inc/stm32h7xx_hal_pwr_ex.h"
ARM GAS  C:\Users\Aaron\AppData\Local\Temp\cc8VdFcK.s 			page 35


 1045              		.file 16 "Drivers/STM32H7xx_HAL_Driver/Inc/stm32h7xx_hal_uart_ex.h"
 1046              		.file 17 "C:/Users/Aaron/AppData/Roaming/Code/User/globalStorage/bmd.stm32-for-vscode/@xpack-dev-t
 1047              		.file 18 "Drivers/STM32H7xx_HAL_Driver/Inc/stm32h7xx_hal.h"
 1048              		.file 19 "<built-in>"
ARM GAS  C:\Users\Aaron\AppData\Local\Temp\cc8VdFcK.s 			page 36

